00000000  0000              add [bx+si],al
00000002  0000              add [bx+si],al
00000004  0000              add [bx+si],al
00000006  0000              add [bx+si],al
00000008  0000              add [bx+si],al
0000000A  0000              add [bx+si],al
0000000C  0000              add [bx+si],al
0000000E  0000              add [bx+si],al
00000010  0000              add [bx+si],al
00000012  0000              add [bx+si],al
00000014  0000              add [bx+si],al
00000016  0000              add [bx+si],al
00000018  0000              add [bx+si],al
0000001A  0000              add [bx+si],al
0000001C  0000              add [bx+si],al
0000001E  0000              add [bx+si],al
00000020  0000              add [bx+si],al
00000022  0000              add [bx+si],al
00000024  0000              add [bx+si],al
00000026  0000              add [bx+si],al
00000028  0000              add [bx+si],al
0000002A  0000              add [bx+si],al
0000002C  0000              add [bx+si],al
0000002E  0000              add [bx+si],al
00000030  0000              add [bx+si],al
00000032  0000              add [bx+si],al
00000034  0000              add [bx+si],al
00000036  0000              add [bx+si],al
00000038  0000              add [bx+si],al
0000003A  0000              add [bx+si],al
0000003C  0000              add [bx+si],al
0000003E  0000              add [bx+si],al
00000040  0000              add [bx+si],al
00000042  0000              add [bx+si],al
00000044  0000              add [bx+si],al
00000046  0000              add [bx+si],al
00000048  0000              add [bx+si],al
0000004A  0000              add [bx+si],al
0000004C  0000              add [bx+si],al
0000004E  0000              add [bx+si],al
00000050  0000              add [bx+si],al
00000052  0000              add [bx+si],al
00000054  0000              add [bx+si],al
00000056  0000              add [bx+si],al
00000058  0000              add [bx+si],al
0000005A  0000              add [bx+si],al
0000005C  0000              add [bx+si],al
0000005E  0000              add [bx+si],al
00000060  0000              add [bx+si],al
00000062  0000              add [bx+si],al
00000064  0000              add [bx+si],al
00000066  0000              add [bx+si],al
00000068  0000              add [bx+si],al
0000006A  0000              add [bx+si],al
0000006C  0000              add [bx+si],al
0000006E  0000              add [bx+si],al
00000070  0000              add [bx+si],al
00000072  0000              add [bx+si],al
00000074  0000              add [bx+si],al
00000076  0000              add [bx+si],al
00000078  0000              add [bx+si],al
0000007A  0000              add [bx+si],al
0000007C  0000              add [bx+si],al
0000007E  0000              add [bx+si],al
00000080  0000              add [bx+si],al
00000082  0000              add [bx+si],al
00000084  0000              add [bx+si],al
00000086  0000              add [bx+si],al
00000088  0000              add [bx+si],al
0000008A  0000              add [bx+si],al
0000008C  0000              add [bx+si],al
0000008E  0000              add [bx+si],al
00000090  0000              add [bx+si],al
00000092  0000              add [bx+si],al
00000094  0000              add [bx+si],al
00000096  0000              add [bx+si],al
00000098  0000              add [bx+si],al
0000009A  0000              add [bx+si],al
0000009C  0000              add [bx+si],al
0000009E  0000              add [bx+si],al
000000A0  0000              add [bx+si],al
000000A2  0000              add [bx+si],al
000000A4  0000              add [bx+si],al
000000A6  0000              add [bx+si],al
000000A8  0000              add [bx+si],al
000000AA  0000              add [bx+si],al
000000AC  0000              add [bx+si],al
000000AE  0000              add [bx+si],al
000000B0  0000              add [bx+si],al
000000B2  0000              add [bx+si],al
000000B4  0000              add [bx+si],al
000000B6  0000              add [bx+si],al
000000B8  0000              add [bx+si],al
000000BA  0000              add [bx+si],al
000000BC  0000              add [bx+si],al
000000BE  0000              add [bx+si],al
000000C0  0000              add [bx+si],al
000000C2  0000              add [bx+si],al
000000C4  0000              add [bx+si],al
000000C6  0000              add [bx+si],al
000000C8  0000              add [bx+si],al
000000CA  0000              add [bx+si],al
000000CC  0000              add [bx+si],al
000000CE  0000              add [bx+si],al
000000D0  0000              add [bx+si],al
000000D2  0000              add [bx+si],al
000000D4  0000              add [bx+si],al
000000D6  0000              add [bx+si],al
000000D8  0000              add [bx+si],al
000000DA  0000              add [bx+si],al
000000DC  0000              add [bx+si],al
000000DE  0000              add [bx+si],al
000000E0  0000              add [bx+si],al
000000E2  0000              add [bx+si],al
000000E4  0000              add [bx+si],al
000000E6  0000              add [bx+si],al
000000E8  0000              add [bx+si],al
000000EA  0000              add [bx+si],al
000000EC  0000              add [bx+si],al
000000EE  0000              add [bx+si],al
000000F0  0000              add [bx+si],al
000000F2  0000              add [bx+si],al
000000F4  0000              add [bx+si],al
000000F6  0000              add [bx+si],al
000000F8  0000              add [bx+si],al
000000FA  0000              add [bx+si],al
000000FC  0000              add [bx+si],al
000000FE  0000              add [bx+si],al
00000100  0000              add [bx+si],al
00000102  0000              add [bx+si],al
00000104  0000              add [bx+si],al
00000106  0000              add [bx+si],al
00000108  0000              add [bx+si],al
0000010A  0000              add [bx+si],al
0000010C  0000              add [bx+si],al
0000010E  0000              add [bx+si],al
00000110  0000              add [bx+si],al
00000112  0000              add [bx+si],al
00000114  0000              add [bx+si],al
00000116  0000              add [bx+si],al
00000118  0000              add [bx+si],al
0000011A  0000              add [bx+si],al
0000011C  0000              add [bx+si],al
0000011E  0000              add [bx+si],al
00000120  0000              add [bx+si],al
00000122  0000              add [bx+si],al
00000124  0000              add [bx+si],al
00000126  0000              add [bx+si],al
00000128  0000              add [bx+si],al
0000012A  0000              add [bx+si],al
0000012C  0000              add [bx+si],al
0000012E  0000              add [bx+si],al
00000130  0000              add [bx+si],al
00000132  0000              add [bx+si],al
00000134  0000              add [bx+si],al
00000136  0000              add [bx+si],al
00000138  0000              add [bx+si],al
0000013A  0000              add [bx+si],al
0000013C  0000              add [bx+si],al
0000013E  0000              add [bx+si],al
00000140  0000              add [bx+si],al
00000142  0000              add [bx+si],al
00000144  0000              add [bx+si],al
00000146  0000              add [bx+si],al
00000148  0000              add [bx+si],al
0000014A  0000              add [bx+si],al
0000014C  0000              add [bx+si],al
0000014E  0000              add [bx+si],al
00000150  0000              add [bx+si],al
00000152  0000              add [bx+si],al
00000154  0000              add [bx+si],al
00000156  0000              add [bx+si],al
00000158  0000              add [bx+si],al
0000015A  0000              add [bx+si],al
0000015C  0000              add [bx+si],al
0000015E  0000              add [bx+si],al
00000160  0000              add [bx+si],al
00000162  0000              add [bx+si],al
00000164  0000              add [bx+si],al
00000166  0000              add [bx+si],al
00000168  0000              add [bx+si],al
0000016A  0000              add [bx+si],al
0000016C  0000              add [bx+si],al
0000016E  0000              add [bx+si],al
00000170  0000              add [bx+si],al
00000172  0000              add [bx+si],al
00000174  0000              add [bx+si],al
00000176  0000              add [bx+si],al
00000178  0000              add [bx+si],al
0000017A  0000              add [bx+si],al
0000017C  0000              add [bx+si],al
0000017E  0000              add [bx+si],al
00000180  0000              add [bx+si],al
00000182  0000              add [bx+si],al
00000184  0000              add [bx+si],al
00000186  0000              add [bx+si],al
00000188  0000              add [bx+si],al
0000018A  0000              add [bx+si],al
0000018C  0000              add [bx+si],al
0000018E  0000              add [bx+si],al
00000190  0000              add [bx+si],al
00000192  0000              add [bx+si],al
00000194  0000              add [bx+si],al
00000196  0000              add [bx+si],al
00000198  0000              add [bx+si],al
0000019A  0000              add [bx+si],al
0000019C  0000              add [bx+si],al
0000019E  0000              add [bx+si],al
000001A0  0000              add [bx+si],al
000001A2  0000              add [bx+si],al
000001A4  0000              add [bx+si],al
000001A6  0000              add [bx+si],al
000001A8  0000              add [bx+si],al
000001AA  0000              add [bx+si],al
000001AC  0000              add [bx+si],al
000001AE  0000              add [bx+si],al
000001B0  0000              add [bx+si],al
000001B2  0000              add [bx+si],al
000001B4  0000              add [bx+si],al
000001B6  0000              add [bx+si],al
000001B8  0000              add [bx+si],al
000001BA  0000              add [bx+si],al
000001BC  0000              add [bx+si],al
000001BE  0000              add [bx+si],al
000001C0  0000              add [bx+si],al
000001C2  0000              add [bx+si],al
000001C4  0000              add [bx+si],al
000001C6  0000              add [bx+si],al
000001C8  0000              add [bx+si],al
000001CA  0000              add [bx+si],al
000001CC  0000              add [bx+si],al
000001CE  0000              add [bx+si],al
000001D0  0000              add [bx+si],al
000001D2  0000              add [bx+si],al
000001D4  0000              add [bx+si],al
000001D6  0000              add [bx+si],al
000001D8  0000              add [bx+si],al
000001DA  0000              add [bx+si],al
000001DC  0000              add [bx+si],al
000001DE  0000              add [bx+si],al
000001E0  0000              add [bx+si],al
000001E2  0000              add [bx+si],al
000001E4  0000              add [bx+si],al
000001E6  0000              add [bx+si],al
000001E8  0000              add [bx+si],al
000001EA  0000              add [bx+si],al
000001EC  0000              add [bx+si],al
000001EE  0000              add [bx+si],al
000001F0  0000              add [bx+si],al
000001F2  0000              add [bx+si],al
000001F4  0000              add [bx+si],al
000001F6  0000              add [bx+si],al
000001F8  0000              add [bx+si],al
000001FA  0000              add [bx+si],al
000001FC  0000              add [bx+si],al
000001FE  0000              add [bx+si],al
00000200  0000              add [bx+si],al
00000202  0000              add [bx+si],al
00000204  0000              add [bx+si],al
00000206  0000              add [bx+si],al
00000208  0000              add [bx+si],al
0000020A  0000              add [bx+si],al
0000020C  0000              add [bx+si],al
0000020E  0000              add [bx+si],al
00000210  0000              add [bx+si],al
00000212  0000              add [bx+si],al
00000214  0000              add [bx+si],al
00000216  0000              add [bx+si],al
00000218  0000              add [bx+si],al
0000021A  0000              add [bx+si],al
0000021C  0000              add [bx+si],al
0000021E  0000              add [bx+si],al
00000220  0000              add [bx+si],al
00000222  0000              add [bx+si],al
00000224  0000              add [bx+si],al
00000226  0000              add [bx+si],al
00000228  0000              add [bx+si],al
0000022A  0000              add [bx+si],al
0000022C  0000              add [bx+si],al
0000022E  0000              add [bx+si],al
00000230  0000              add [bx+si],al
00000232  0000              add [bx+si],al
00000234  0000              add [bx+si],al
00000236  0000              add [bx+si],al
00000238  0000              add [bx+si],al
0000023A  0000              add [bx+si],al
0000023C  0000              add [bx+si],al
0000023E  0000              add [bx+si],al
00000240  0000              add [bx+si],al
00000242  0000              add [bx+si],al
00000244  0000              add [bx+si],al
00000246  0000              add [bx+si],al
00000248  0000              add [bx+si],al
0000024A  0000              add [bx+si],al
0000024C  0000              add [bx+si],al
0000024E  0000              add [bx+si],al
00000250  0000              add [bx+si],al
00000252  0000              add [bx+si],al
00000254  0000              add [bx+si],al
00000256  0000              add [bx+si],al
00000258  0000              add [bx+si],al
0000025A  0000              add [bx+si],al
0000025C  0000              add [bx+si],al
0000025E  0000              add [bx+si],al
00000260  0000              add [bx+si],al
00000262  0000              add [bx+si],al
00000264  0000              add [bx+si],al
00000266  0000              add [bx+si],al
00000268  0000              add [bx+si],al
0000026A  0000              add [bx+si],al
0000026C  0000              add [bx+si],al
0000026E  0000              add [bx+si],al
00000270  0000              add [bx+si],al
00000272  0000              add [bx+si],al
00000274  0000              add [bx+si],al
00000276  0000              add [bx+si],al
00000278  0000              add [bx+si],al
0000027A  0000              add [bx+si],al
0000027C  0000              add [bx+si],al
0000027E  0000              add [bx+si],al
00000280  0000              add [bx+si],al
00000282  0000              add [bx+si],al
00000284  0000              add [bx+si],al
00000286  0000              add [bx+si],al
00000288  0000              add [bx+si],al
0000028A  0000              add [bx+si],al
0000028C  0000              add [bx+si],al
0000028E  0000              add [bx+si],al
00000290  0000              add [bx+si],al
00000292  0000              add [bx+si],al
00000294  0000              add [bx+si],al
00000296  0000              add [bx+si],al
00000298  0000              add [bx+si],al
0000029A  0000              add [bx+si],al
0000029C  0000              add [bx+si],al
0000029E  0000              add [bx+si],al
000002A0  0000              add [bx+si],al
000002A2  0000              add [bx+si],al
000002A4  0000              add [bx+si],al
000002A6  0000              add [bx+si],al
000002A8  0000              add [bx+si],al
000002AA  0000              add [bx+si],al
000002AC  0000              add [bx+si],al
000002AE  0000              add [bx+si],al
000002B0  0000              add [bx+si],al
000002B2  0000              add [bx+si],al
000002B4  0000              add [bx+si],al
000002B6  0000              add [bx+si],al
000002B8  0000              add [bx+si],al
000002BA  0000              add [bx+si],al
000002BC  0000              add [bx+si],al
000002BE  0000              add [bx+si],al
000002C0  0000              add [bx+si],al
000002C2  0000              add [bx+si],al
000002C4  0000              add [bx+si],al
000002C6  0000              add [bx+si],al
000002C8  0000              add [bx+si],al
000002CA  0000              add [bx+si],al
000002CC  0000              add [bx+si],al
000002CE  0000              add [bx+si],al
000002D0  0000              add [bx+si],al
000002D2  0000              add [bx+si],al
000002D4  0000              add [bx+si],al
000002D6  0000              add [bx+si],al
000002D8  0000              add [bx+si],al
000002DA  0000              add [bx+si],al
000002DC  0000              add [bx+si],al
000002DE  0000              add [bx+si],al
000002E0  0000              add [bx+si],al
000002E2  0000              add [bx+si],al
000002E4  0000              add [bx+si],al
000002E6  0000              add [bx+si],al
000002E8  0000              add [bx+si],al
000002EA  0000              add [bx+si],al
000002EC  0000              add [bx+si],al
000002EE  0000              add [bx+si],al
000002F0  0000              add [bx+si],al
000002F2  0000              add [bx+si],al
000002F4  0000              add [bx+si],al
000002F6  0000              add [bx+si],al
000002F8  0000              add [bx+si],al
000002FA  0000              add [bx+si],al
000002FC  0000              add [bx+si],al
000002FE  0000              add [bx+si],al
00000300  0000              add [bx+si],al
00000302  0000              add [bx+si],al
00000304  0000              add [bx+si],al
00000306  0000              add [bx+si],al
00000308  0000              add [bx+si],al
0000030A  0000              add [bx+si],al
0000030C  0000              add [bx+si],al
0000030E  0000              add [bx+si],al
00000310  0000              add [bx+si],al
00000312  0000              add [bx+si],al
00000314  0000              add [bx+si],al
00000316  0000              add [bx+si],al
00000318  0000              add [bx+si],al
0000031A  0000              add [bx+si],al
0000031C  0000              add [bx+si],al
0000031E  0000              add [bx+si],al
00000320  0000              add [bx+si],al
00000322  0000              add [bx+si],al
00000324  0000              add [bx+si],al
00000326  0000              add [bx+si],al
00000328  0000              add [bx+si],al
0000032A  0000              add [bx+si],al
0000032C  0000              add [bx+si],al
0000032E  0000              add [bx+si],al
00000330  0000              add [bx+si],al
00000332  0000              add [bx+si],al
00000334  0000              add [bx+si],al
00000336  0000              add [bx+si],al
00000338  0000              add [bx+si],al
0000033A  0000              add [bx+si],al
0000033C  0000              add [bx+si],al
0000033E  0000              add [bx+si],al
00000340  0000              add [bx+si],al
00000342  0000              add [bx+si],al
00000344  0000              add [bx+si],al
00000346  0000              add [bx+si],al
00000348  0000              add [bx+si],al
0000034A  0000              add [bx+si],al
0000034C  0000              add [bx+si],al
0000034E  0000              add [bx+si],al
00000350  0000              add [bx+si],al
00000352  0000              add [bx+si],al
00000354  0000              add [bx+si],al
00000356  0000              add [bx+si],al
00000358  0000              add [bx+si],al
0000035A  0000              add [bx+si],al
0000035C  0000              add [bx+si],al
0000035E  0000              add [bx+si],al
00000360  0000              add [bx+si],al
00000362  0000              add [bx+si],al
00000364  0000              add [bx+si],al
00000366  0000              add [bx+si],al
00000368  0000              add [bx+si],al
0000036A  0000              add [bx+si],al
0000036C  0000              add [bx+si],al
0000036E  0000              add [bx+si],al
00000370  0000              add [bx+si],al
00000372  0000              add [bx+si],al
00000374  0000              add [bx+si],al
00000376  0000              add [bx+si],al
00000378  0000              add [bx+si],al
0000037A  0000              add [bx+si],al
0000037C  0000              add [bx+si],al
0000037E  0000              add [bx+si],al
00000380  0000              add [bx+si],al
00000382  0000              add [bx+si],al
00000384  0000              add [bx+si],al
00000386  0000              add [bx+si],al
00000388  0000              add [bx+si],al
0000038A  0000              add [bx+si],al
0000038C  0000              add [bx+si],al
0000038E  0000              add [bx+si],al
00000390  0000              add [bx+si],al
00000392  0000              add [bx+si],al
00000394  0000              add [bx+si],al
00000396  0000              add [bx+si],al
00000398  0000              add [bx+si],al
0000039A  0000              add [bx+si],al
0000039C  0000              add [bx+si],al
0000039E  0000              add [bx+si],al
000003A0  0000              add [bx+si],al
000003A2  0000              add [bx+si],al
000003A4  0000              add [bx+si],al
000003A6  0000              add [bx+si],al
000003A8  0000              add [bx+si],al
000003AA  0000              add [bx+si],al
000003AC  0000              add [bx+si],al
000003AE  0000              add [bx+si],al
000003B0  0000              add [bx+si],al
000003B2  0000              add [bx+si],al
000003B4  0000              add [bx+si],al
000003B6  0000              add [bx+si],al
000003B8  0000              add [bx+si],al
000003BA  0000              add [bx+si],al
000003BC  0000              add [bx+si],al
000003BE  0000              add [bx+si],al
000003C0  0000              add [bx+si],al
000003C2  0000              add [bx+si],al
000003C4  0000              add [bx+si],al
000003C6  0000              add [bx+si],al
000003C8  0000              add [bx+si],al
000003CA  0000              add [bx+si],al
000003CC  0000              add [bx+si],al
000003CE  0000              add [bx+si],al
000003D0  0000              add [bx+si],al
000003D2  0000              add [bx+si],al
000003D4  0000              add [bx+si],al
000003D6  0000              add [bx+si],al
000003D8  0000              add [bx+si],al
000003DA  0000              add [bx+si],al
000003DC  0000              add [bx+si],al
000003DE  0000              add [bx+si],al
000003E0  0000              add [bx+si],al
000003E2  0000              add [bx+si],al
000003E4  0000              add [bx+si],al
000003E6  0000              add [bx+si],al
000003E8  0000              add [bx+si],al
000003EA  0000              add [bx+si],al
000003EC  0000              add [bx+si],al
000003EE  0000              add [bx+si],al
000003F0  0000              add [bx+si],al
000003F2  0000              add [bx+si],al
000003F4  0000              add [bx+si],al
000003F6  0000              add [bx+si],al
000003F8  0000              add [bx+si],al
000003FA  0000              add [bx+si],al
000003FC  0000              add [bx+si],al
000003FE  0000              add [bx+si],al
00000400  0000              add [bx+si],al
00000402  0000              add [bx+si],al
00000404  0000              add [bx+si],al
00000406  0000              add [bx+si],al
00000408  0000              add [bx+si],al
0000040A  0000              add [bx+si],al
0000040C  0000              add [bx+si],al
0000040E  0000              add [bx+si],al
00000410  0000              add [bx+si],al
00000412  0000              add [bx+si],al
00000414  0000              add [bx+si],al
00000416  0000              add [bx+si],al
00000418  0000              add [bx+si],al
0000041A  0000              add [bx+si],al
0000041C  0000              add [bx+si],al
0000041E  0000              add [bx+si],al
00000420  0000              add [bx+si],al
00000422  0000              add [bx+si],al
00000424  0000              add [bx+si],al
00000426  0000              add [bx+si],al
00000428  0000              add [bx+si],al
0000042A  0000              add [bx+si],al
0000042C  0000              add [bx+si],al
0000042E  0000              add [bx+si],al
00000430  0000              add [bx+si],al
00000432  0000              add [bx+si],al
00000434  0000              add [bx+si],al
00000436  0000              add [bx+si],al
00000438  0000              add [bx+si],al
0000043A  0000              add [bx+si],al
0000043C  0000              add [bx+si],al
0000043E  0000              add [bx+si],al
00000440  0000              add [bx+si],al
00000442  0000              add [bx+si],al
00000444  0000              add [bx+si],al
00000446  0000              add [bx+si],al
00000448  0000              add [bx+si],al
0000044A  0000              add [bx+si],al
0000044C  0000              add [bx+si],al
0000044E  0000              add [bx+si],al
00000450  0000              add [bx+si],al
00000452  0000              add [bx+si],al
00000454  0000              add [bx+si],al
00000456  0000              add [bx+si],al
00000458  0000              add [bx+si],al
0000045A  0000              add [bx+si],al
0000045C  0000              add [bx+si],al
0000045E  0000              add [bx+si],al
00000460  0000              add [bx+si],al
00000462  0000              add [bx+si],al
00000464  0000              add [bx+si],al
00000466  0000              add [bx+si],al
00000468  0000              add [bx+si],al
0000046A  0000              add [bx+si],al
0000046C  0000              add [bx+si],al
0000046E  0000              add [bx+si],al
00000470  0000              add [bx+si],al
00000472  0000              add [bx+si],al
00000474  0000              add [bx+si],al
00000476  0000              add [bx+si],al
00000478  0000              add [bx+si],al
0000047A  0000              add [bx+si],al
0000047C  0000              add [bx+si],al
0000047E  0000              add [bx+si],al
00000480  0000              add [bx+si],al
00000482  0000              add [bx+si],al
00000484  0000              add [bx+si],al
00000486  0000              add [bx+si],al
00000488  0000              add [bx+si],al
0000048A  0000              add [bx+si],al
0000048C  0000              add [bx+si],al
0000048E  0000              add [bx+si],al
00000490  0000              add [bx+si],al
00000492  0000              add [bx+si],al
00000494  0000              add [bx+si],al
00000496  0000              add [bx+si],al
00000498  0000              add [bx+si],al
0000049A  0000              add [bx+si],al
0000049C  0000              add [bx+si],al
0000049E  0000              add [bx+si],al
000004A0  0000              add [bx+si],al
000004A2  0000              add [bx+si],al
000004A4  0000              add [bx+si],al
000004A6  0000              add [bx+si],al
000004A8  0000              add [bx+si],al
000004AA  0000              add [bx+si],al
000004AC  0000              add [bx+si],al
000004AE  0000              add [bx+si],al
000004B0  0000              add [bx+si],al
000004B2  0000              add [bx+si],al
000004B4  0000              add [bx+si],al
000004B6  0000              add [bx+si],al
000004B8  0000              add [bx+si],al
000004BA  0000              add [bx+si],al
000004BC  0000              add [bx+si],al
000004BE  0000              add [bx+si],al
000004C0  0000              add [bx+si],al
000004C2  0000              add [bx+si],al
000004C4  0000              add [bx+si],al
000004C6  0000              add [bx+si],al
000004C8  0000              add [bx+si],al
000004CA  0000              add [bx+si],al
000004CC  0000              add [bx+si],al
000004CE  0000              add [bx+si],al
000004D0  0000              add [bx+si],al
000004D2  0000              add [bx+si],al
000004D4  0000              add [bx+si],al
000004D6  0000              add [bx+si],al
000004D8  0000              add [bx+si],al
000004DA  0000              add [bx+si],al
000004DC  0000              add [bx+si],al
000004DE  0000              add [bx+si],al
000004E0  0000              add [bx+si],al
000004E2  0000              add [bx+si],al
000004E4  0000              add [bx+si],al
000004E6  0000              add [bx+si],al
000004E8  0000              add [bx+si],al
000004EA  0000              add [bx+si],al
000004EC  0000              add [bx+si],al
000004EE  0000              add [bx+si],al
000004F0  0000              add [bx+si],al
000004F2  0000              add [bx+si],al
000004F4  0000              add [bx+si],al
000004F6  0000              add [bx+si],al
000004F8  0000              add [bx+si],al
000004FA  0000              add [bx+si],al
000004FC  0000              add [bx+si],al
000004FE  0000              add [bx+si],al
00000500  0000              add [bx+si],al
00000502  0000              add [bx+si],al
00000504  0000              add [bx+si],al
00000506  0000              add [bx+si],al
00000508  0000              add [bx+si],al
0000050A  0000              add [bx+si],al
0000050C  0000              add [bx+si],al
0000050E  0000              add [bx+si],al
00000510  0000              add [bx+si],al
00000512  0000              add [bx+si],al
00000514  0000              add [bx+si],al
00000516  0000              add [bx+si],al
00000518  0000              add [bx+si],al
0000051A  0000              add [bx+si],al
0000051C  0000              add [bx+si],al
0000051E  0000              add [bx+si],al
00000520  0000              add [bx+si],al
00000522  0000              add [bx+si],al
00000524  0000              add [bx+si],al
00000526  0000              add [bx+si],al
00000528  0000              add [bx+si],al
0000052A  0000              add [bx+si],al
0000052C  0000              add [bx+si],al
0000052E  0000              add [bx+si],al
00000530  0000              add [bx+si],al
00000532  0000              add [bx+si],al
00000534  0000              add [bx+si],al
00000536  0000              add [bx+si],al
00000538  0000              add [bx+si],al
0000053A  0000              add [bx+si],al
0000053C  0000              add [bx+si],al
0000053E  0000              add [bx+si],al
00000540  0000              add [bx+si],al
00000542  0000              add [bx+si],al
00000544  0000              add [bx+si],al
00000546  0000              add [bx+si],al
00000548  0000              add [bx+si],al
0000054A  0000              add [bx+si],al
0000054C  0000              add [bx+si],al
0000054E  0000              add [bx+si],al
00000550  0000              add [bx+si],al
00000552  0000              add [bx+si],al
00000554  0000              add [bx+si],al
00000556  0000              add [bx+si],al
00000558  0000              add [bx+si],al
0000055A  0000              add [bx+si],al
0000055C  0000              add [bx+si],al
0000055E  0000              add [bx+si],al
00000560  0000              add [bx+si],al
00000562  0000              add [bx+si],al
00000564  0000              add [bx+si],al
00000566  0000              add [bx+si],al
00000568  0000              add [bx+si],al
0000056A  0000              add [bx+si],al
0000056C  0000              add [bx+si],al
0000056E  0000              add [bx+si],al
00000570  0000              add [bx+si],al
00000572  0000              add [bx+si],al
00000574  0000              add [bx+si],al
00000576  0000              add [bx+si],al
00000578  0000              add [bx+si],al
0000057A  0000              add [bx+si],al
0000057C  0000              add [bx+si],al
0000057E  0000              add [bx+si],al
00000580  0000              add [bx+si],al
00000582  0000              add [bx+si],al
00000584  0000              add [bx+si],al
00000586  0000              add [bx+si],al
00000588  0000              add [bx+si],al
0000058A  0000              add [bx+si],al
0000058C  0000              add [bx+si],al
0000058E  0000              add [bx+si],al
00000590  0000              add [bx+si],al
00000592  0000              add [bx+si],al
00000594  0000              add [bx+si],al
00000596  0000              add [bx+si],al
00000598  0000              add [bx+si],al
0000059A  0000              add [bx+si],al
0000059C  0000              add [bx+si],al
0000059E  0000              add [bx+si],al
000005A0  0000              add [bx+si],al
000005A2  0000              add [bx+si],al
000005A4  0000              add [bx+si],al
000005A6  0000              add [bx+si],al
000005A8  0000              add [bx+si],al
000005AA  0000              add [bx+si],al
000005AC  0000              add [bx+si],al
000005AE  0000              add [bx+si],al
000005B0  0000              add [bx+si],al
000005B2  0000              add [bx+si],al
000005B4  0000              add [bx+si],al
000005B6  0000              add [bx+si],al
000005B8  0000              add [bx+si],al
000005BA  0000              add [bx+si],al
000005BC  0000              add [bx+si],al
000005BE  0000              add [bx+si],al
000005C0  0000              add [bx+si],al
000005C2  0000              add [bx+si],al
000005C4  0000              add [bx+si],al
000005C6  0000              add [bx+si],al
000005C8  0000              add [bx+si],al
000005CA  0000              add [bx+si],al
000005CC  0000              add [bx+si],al
000005CE  0000              add [bx+si],al
000005D0  0000              add [bx+si],al
000005D2  0000              add [bx+si],al
000005D4  0000              add [bx+si],al
000005D6  0000              add [bx+si],al
000005D8  0000              add [bx+si],al
000005DA  0000              add [bx+si],al
000005DC  0000              add [bx+si],al
000005DE  0000              add [bx+si],al
000005E0  0000              add [bx+si],al
000005E2  0000              add [bx+si],al
000005E4  0000              add [bx+si],al
000005E6  0000              add [bx+si],al
000005E8  0000              add [bx+si],al
000005EA  0000              add [bx+si],al
000005EC  0000              add [bx+si],al
000005EE  0000              add [bx+si],al
000005F0  0000              add [bx+si],al
000005F2  0000              add [bx+si],al
000005F4  0000              add [bx+si],al
000005F6  0000              add [bx+si],al
000005F8  0000              add [bx+si],al
000005FA  0000              add [bx+si],al
000005FC  0000              add [bx+si],al
000005FE  0000              add [bx+si],al
00000600  E800EB            call 0xf103
00000603  3B00              cmp ax,[bx+si]
00000605  0100              add [bx+si],ax
00000607  007250            add [bp+si+0x50],dh
0000060A  0E                push cs
0000060B  B710              mov bh,0x10
0000060D  01E7              add di,sp
0000060F  C6                db 0xc6
00000610  1B30              sbb si,[bx+si]
00000612  0000              add [bx+si],al
00000614  0000              add [bx+si],al
00000616  0000              add [bx+si],al
00000618  0000              add [bx+si],al
0000061A  0000              add [bx+si],al
0000061C  0000              add [bx+si],al
0000061E  0000              add [bx+si],al
00000620  0000              add [bx+si],al
00000622  0000              add [bx+si],al
00000624  0005              add [di],al
00000626  B31C              mov bl,0x1c
00000628  08ED              or ch,ch
0000062A  0BC0              or ax,ax
0000062C  60                pusha
0000062D  8ED8              mov ds,ax
0000062F  8EC0              mov es,ax
00000631  BEDD7C            mov si,0x7cdd
00000634  2E668B8FD066      mov ecx,[cs:bx+0x66d0]
0000063A  9C                pushf
0000063B  97                xchg ax,di
0000063C  47                inc di
0000063D  66681C1FF700      push dword 0xf71f1c
00000643  66C1E9B2          shr ecx,byte 0xb2
00000647  E668              out 0x68,al
00000649  BB790E            mov bx,0xe79
0000064C  850EA002          test [0x2a0],cx
00000650  086631            or [bp+0x31],ah
00000653  C06A1066          shr byte [bp+si+0x10],byte 0x66
00000657  46                inc si
00000658  6650              push eax
0000065A  6656              push esi
0000065C  680866            push word 0x6608
0000065F  50                push ax
00000660  6A10              push byte +0x10
00000662  6631FF            xor edi,edi
00000665  89E6              mov si,sp
00000667  8B7C10            mov di,[si+0x10]
0000066A  6639CF            cmp edi,ecx
0000066D  7636              jna 0x6a5
0000066F  689CF8            push word 0xf89c
00000672  97                xchg ax,di
00000673  C26651            ret 0x5166
00000676  B442              mov ah,0x42
00000678  CD13              int 0x13
0000067A  7316              jnc 0x692
0000067C  B442              mov ah,0x42
0000067E  CD13              int 0x13
00000680  7310              jnc 0x692
00000682  D1EF              shr di,1
00000684  7423              jz 0x6a9
00000686  897C10            mov [si+0x10],di
00000689  897C2B            mov [si+0x2b],di
0000068C  44                inc sp
0000068D  2CD1              sub al,0xd1
0000068F  37                aaa
00000690  2F                das
00000691  089F8C1E          or [bx+0x1e8c],bl
00000695  07                pop es
00000696  1446              adc al,0x46
00000698  6617              o32 pop ss
0000069A  C8665966          enter 0x5966,0x66
0000069E  29F9              sub cx,di
000006A0  75C1              jnz 0x663
000006A2  83C412            add sp,byte +0x12
000006A5  C3                ret
000006A6  BEEA7C            mov si,0x7cea
000006A9  B4E3              mov ah,0xe3
000006AB  1DBACC            sbb ax,0xccba
000006AE  D103              rol word [bp+di],1
000006B0  C0                db 0xc0
000006B1  75F9              jnz 0x6ac
000006B3  EBFE              jmp short 0x6b3
000006B5  6E                outsb
000006B6  6F                outsw
000006B7  20626F            and [bp+si+0x6f],ah
000006BA  6F                outsw
000006BB  7420              jz 0x6dd
000006BD  696E666F06        imul bp,[bp+0x66],word 0x66f
000006C2  3647              ss inc di
000006C4  26F6D2            es not dl
000006C7  07                pop es
000006C8  2656              es push si
000006CA  16                push ss
000006CB  42                inc dx
000006CC  06                push es
000006CD  6616              o32 push ss
000006CF  96                xchg ax,si
000006D0  C7                db 0xc7
000006D1  3000              xor [bx+si],al
000006D3  0000              add [bx+si],al
000006D5  0000              add [bx+si],al
000006D7  0000              add [bx+si],al
000006D9  0000              add [bx+si],al
000006DB  0000              add [bx+si],al
000006DD  0000              add [bx+si],al
000006DF  0000              add [bx+si],al
000006E1  0000              add [bx+si],al
000006E3  0000              add [bx+si],al
000006E5  0000              add [bx+si],al
000006E7  0000              add [bx+si],al
000006E9  0000              add [bx+si],al
000006EB  0000              add [bx+si],al
000006ED  0000              add [bx+si],al
000006EF  0000              add [bx+si],al
000006F1  0000              add [bx+si],al
000006F3  0000              add [bx+si],al
000006F5  0000              add [bx+si],al
000006F7  0000              add [bx+si],al
000006F9  0000              add [bx+si],al
000006FB  0000              add [bx+si],al
000006FD  0000              add [bx+si],al
000006FF  0000              add [bx+si],al
00000701  0000              add [bx+si],al
00000703  0000              add [bx+si],al
00000705  0000              add [bx+si],al
00000707  0000              add [bx+si],al
00000709  0000              add [bx+si],al
0000070B  0000              add [bx+si],al
0000070D  0000              add [bx+si],al
0000070F  0000              add [bx+si],al
00000711  0000              add [bx+si],al
00000713  0000              add [bx+si],al
00000715  0000              add [bx+si],al
00000717  0000              add [bx+si],al
00000719  0000              add [bx+si],al
0000071B  0000              add [bx+si],al
0000071D  0000              add [bx+si],al
0000071F  0000              add [bx+si],al
00000721  0000              add [bx+si],al
00000723  0000              add [bx+si],al
00000725  0000              add [bx+si],al
00000727  0000              add [bx+si],al
00000729  0000              add [bx+si],al
0000072B  0000              add [bx+si],al
0000072D  0000              add [bx+si],al
0000072F  0000              add [bx+si],al
00000731  0000              add [bx+si],al
00000733  0000              add [bx+si],al
00000735  0000              add [bx+si],al
00000737  0000              add [bx+si],al
00000739  0000              add [bx+si],al
0000073B  0000              add [bx+si],al
0000073D  0000              add [bx+si],al
0000073F  0000              add [bx+si],al
00000741  0000              add [bx+si],al
00000743  0000              add [bx+si],al
00000745  0000              add [bx+si],al
00000747  0000              add [bx+si],al
00000749  0000              add [bx+si],al
0000074B  0000              add [bx+si],al
0000074D  0000              add [bx+si],al
0000074F  0000              add [bx+si],al
00000751  0000              add [bx+si],al
00000753  0000              add [bx+si],al
00000755  0000              add [bx+si],al
00000757  0000              add [bx+si],al
00000759  0000              add [bx+si],al
0000075B  0000              add [bx+si],al
0000075D  0000              add [bx+si],al
0000075F  0000              add [bx+si],al
00000761  0000              add [bx+si],al
00000763  0000              add [bx+si],al
00000765  0000              add [bx+si],al
00000767  0000              add [bx+si],al
00000769  0000              add [bx+si],al
0000076B  0000              add [bx+si],al
0000076D  0000              add [bx+si],al
0000076F  0000              add [bx+si],al
00000771  0000              add [bx+si],al
00000773  0000              add [bx+si],al
00000775  0000              add [bx+si],al
00000777  0000              add [bx+si],al
00000779  0000              add [bx+si],al
0000077B  0000              add [bx+si],al
0000077D  0000              add [bx+si],al
0000077F  0000              add [bx+si],al
00000781  0000              add [bx+si],al
00000783  0000              add [bx+si],al
00000785  0000              add [bx+si],al
00000787  0000              add [bx+si],al
00000789  0000              add [bx+si],al
0000078B  0000              add [bx+si],al
0000078D  0000              add [bx+si],al
0000078F  0000              add [bx+si],al
00000791  0000              add [bx+si],al
00000793  0000              add [bx+si],al
00000795  0000              add [bx+si],al
00000797  0000              add [bx+si],al
00000799  0000              add [bx+si],al
0000079B  0000              add [bx+si],al
0000079D  0000              add [bx+si],al
0000079F  0000              add [bx+si],al
000007A1  0000              add [bx+si],al
000007A3  0000              add [bx+si],al
000007A5  0000              add [bx+si],al
000007A7  0000              add [bx+si],al
000007A9  0000              add [bx+si],al
000007AB  0000              add [bx+si],al
000007AD  0000              add [bx+si],al
000007AF  0000              add [bx+si],al
000007B1  0000              add [bx+si],al
000007B3  0000              add [bx+si],al
000007B5  0000              add [bx+si],al
000007B7  0000              add [bx+si],al
000007B9  0000              add [bx+si],al
000007BB  0000              add [bx+si],al
000007BD  0000              add [bx+si],al
000007BF  0000              add [bx+si],al
000007C1  0000              add [bx+si],al
000007C3  0000              add [bx+si],al
000007C5  0000              add [bx+si],al
000007C7  0000              add [bx+si],al
000007C9  0000              add [bx+si],al
000007CB  0000              add [bx+si],al
000007CD  0000              add [bx+si],al
000007CF  0000              add [bx+si],al
000007D1  0000              add [bx+si],al
000007D3  0000              add [bx+si],al
000007D5  0000              add [bx+si],al
000007D7  0000              add [bx+si],al
000007D9  0000              add [bx+si],al
000007DB  0000              add [bx+si],al
000007DD  0000              add [bx+si],al
000007DF  0000              add [bx+si],al
000007E1  0000              add [bx+si],al
000007E3  0000              add [bx+si],al
000007E5  0000              add [bx+si],al
000007E7  0000              add [bx+si],al
000007E9  0000              add [bx+si],al
000007EB  0000              add [bx+si],al
000007ED  0000              add [bx+si],al
000007EF  0000              add [bx+si],al
000007F1  0000              add [bx+si],al
000007F3  0000              add [bx+si],al
000007F5  0000              add [bx+si],al
000007F7  0000              add [bx+si],al
000007F9  0000              add [bx+si],al
000007FB  0000              add [bx+si],al
000007FD  0000              add [bx+si],al
000007FF  0000              add [bx+si],al
00000801  0000              add [bx+si],al
00000803  0000              add [bx+si],al
00000805  0000              add [bx+si],al
00000807  0000              add [bx+si],al
00000809  0000              add [bx+si],al
0000080B  0000              add [bx+si],al
0000080D  0000              add [bx+si],al
0000080F  0000              add [bx+si],al
00000811  0000              add [bx+si],al
00000813  0000              add [bx+si],al
00000815  0000              add [bx+si],al
00000817  0000              add [bx+si],al
00000819  0000              add [bx+si],al
0000081B  0000              add [bx+si],al
0000081D  0000              add [bx+si],al
0000081F  0000              add [bx+si],al
00000821  0000              add [bx+si],al
00000823  0000              add [bx+si],al
00000825  0000              add [bx+si],al
00000827  0000              add [bx+si],al
00000829  0000              add [bx+si],al
0000082B  0000              add [bx+si],al
0000082D  0000              add [bx+si],al
0000082F  0000              add [bx+si],al
00000831  0000              add [bx+si],al
00000833  0000              add [bx+si],al
00000835  0000              add [bx+si],al
00000837  0000              add [bx+si],al
00000839  0000              add [bx+si],al
0000083B  0000              add [bx+si],al
0000083D  0000              add [bx+si],al
0000083F  0000              add [bx+si],al
00000841  0000              add [bx+si],al
00000843  0000              add [bx+si],al
00000845  0000              add [bx+si],al
00000847  0000              add [bx+si],al
00000849  0000              add [bx+si],al
0000084B  0000              add [bx+si],al
0000084D  0000              add [bx+si],al
0000084F  0000              add [bx+si],al
00000851  0000              add [bx+si],al
00000853  0000              add [bx+si],al
00000855  0000              add [bx+si],al
00000857  0000              add [bx+si],al
00000859  0000              add [bx+si],al
0000085B  0000              add [bx+si],al
0000085D  0000              add [bx+si],al
0000085F  0000              add [bx+si],al
00000861  0000              add [bx+si],al
00000863  0000              add [bx+si],al
00000865  0000              add [bx+si],al
00000867  0000              add [bx+si],al
00000869  0000              add [bx+si],al
0000086B  0000              add [bx+si],al
0000086D  0000              add [bx+si],al
0000086F  0000              add [bx+si],al
00000871  0000              add [bx+si],al
00000873  0000              add [bx+si],al
00000875  0000              add [bx+si],al
00000877  0000              add [bx+si],al
00000879  0000              add [bx+si],al
0000087B  0000              add [bx+si],al
0000087D  0000              add [bx+si],al
0000087F  0000              add [bx+si],al
00000881  0000              add [bx+si],al
00000883  0000              add [bx+si],al
00000885  0000              add [bx+si],al
00000887  0000              add [bx+si],al
00000889  0000              add [bx+si],al
0000088B  0000              add [bx+si],al
0000088D  0000              add [bx+si],al
0000088F  0000              add [bx+si],al
00000891  0000              add [bx+si],al
00000893  0000              add [bx+si],al
00000895  0000              add [bx+si],al
00000897  0000              add [bx+si],al
00000899  0000              add [bx+si],al
0000089B  0000              add [bx+si],al
0000089D  0000              add [bx+si],al
0000089F  0000              add [bx+si],al
000008A1  0000              add [bx+si],al
000008A3  0000              add [bx+si],al
000008A5  0000              add [bx+si],al
000008A7  0000              add [bx+si],al
000008A9  0000              add [bx+si],al
000008AB  0000              add [bx+si],al
000008AD  0000              add [bx+si],al
000008AF  0000              add [bx+si],al
000008B1  0000              add [bx+si],al
000008B3  0000              add [bx+si],al
000008B5  0000              add [bx+si],al
000008B7  0000              add [bx+si],al
000008B9  0000              add [bx+si],al
000008BB  0000              add [bx+si],al
000008BD  0000              add [bx+si],al
000008BF  0000              add [bx+si],al
000008C1  0000              add [bx+si],al
000008C3  0000              add [bx+si],al
000008C5  0000              add [bx+si],al
000008C7  0000              add [bx+si],al
000008C9  0000              add [bx+si],al
000008CB  0000              add [bx+si],al
000008CD  0000              add [bx+si],al
000008CF  0000              add [bx+si],al
000008D1  0000              add [bx+si],al
000008D3  0000              add [bx+si],al
000008D5  0000              add [bx+si],al
000008D7  0000              add [bx+si],al
000008D9  0000              add [bx+si],al
000008DB  0000              add [bx+si],al
000008DD  0000              add [bx+si],al
000008DF  0000              add [bx+si],al
000008E1  0000              add [bx+si],al
000008E3  0000              add [bx+si],al
000008E5  0000              add [bx+si],al
000008E7  0000              add [bx+si],al
000008E9  0000              add [bx+si],al
000008EB  0000              add [bx+si],al
000008ED  0000              add [bx+si],al
000008EF  0000              add [bx+si],al
000008F1  0000              add [bx+si],al
000008F3  0000              add [bx+si],al
000008F5  0000              add [bx+si],al
000008F7  0000              add [bx+si],al
000008F9  0000              add [bx+si],al
000008FB  0000              add [bx+si],al
000008FD  0000              add [bx+si],al
000008FF  0000              add [bx+si],al
00000901  0000              add [bx+si],al
00000903  0000              add [bx+si],al
00000905  0000              add [bx+si],al
00000907  0000              add [bx+si],al
00000909  0000              add [bx+si],al
0000090B  0000              add [bx+si],al
0000090D  0000              add [bx+si],al
0000090F  0000              add [bx+si],al
00000911  0000              add [bx+si],al
00000913  0000              add [bx+si],al
00000915  0000              add [bx+si],al
00000917  0000              add [bx+si],al
00000919  0000              add [bx+si],al
0000091B  0000              add [bx+si],al
0000091D  0000              add [bx+si],al
0000091F  0000              add [bx+si],al
00000921  0000              add [bx+si],al
00000923  0000              add [bx+si],al
00000925  0000              add [bx+si],al
00000927  0000              add [bx+si],al
00000929  0000              add [bx+si],al
0000092B  0000              add [bx+si],al
0000092D  0000              add [bx+si],al
0000092F  0000              add [bx+si],al
00000931  0000              add [bx+si],al
00000933  0000              add [bx+si],al
00000935  0000              add [bx+si],al
00000937  0000              add [bx+si],al
00000939  0000              add [bx+si],al
0000093B  0000              add [bx+si],al
0000093D  0000              add [bx+si],al
0000093F  0000              add [bx+si],al
00000941  0000              add [bx+si],al
00000943  0000              add [bx+si],al
00000945  0000              add [bx+si],al
00000947  0000              add [bx+si],al
00000949  0000              add [bx+si],al
0000094B  0000              add [bx+si],al
0000094D  0000              add [bx+si],al
0000094F  0000              add [bx+si],al
00000951  0000              add [bx+si],al
00000953  0000              add [bx+si],al
00000955  0000              add [bx+si],al
00000957  0000              add [bx+si],al
00000959  0000              add [bx+si],al
0000095B  0000              add [bx+si],al
0000095D  0000              add [bx+si],al
0000095F  0000              add [bx+si],al
00000961  0000              add [bx+si],al
00000963  0000              add [bx+si],al
00000965  0000              add [bx+si],al
00000967  0000              add [bx+si],al
00000969  0000              add [bx+si],al
0000096B  0000              add [bx+si],al
0000096D  0000              add [bx+si],al
0000096F  0000              add [bx+si],al
00000971  0000              add [bx+si],al
00000973  0000              add [bx+si],al
00000975  0000              add [bx+si],al
00000977  0000              add [bx+si],al
00000979  0000              add [bx+si],al
0000097B  0000              add [bx+si],al
0000097D  0000              add [bx+si],al
0000097F  0000              add [bx+si],al
00000981  0000              add [bx+si],al
00000983  0000              add [bx+si],al
00000985  0000              add [bx+si],al
00000987  0000              add [bx+si],al
00000989  0000              add [bx+si],al
0000098B  0000              add [bx+si],al
0000098D  0000              add [bx+si],al
0000098F  0000              add [bx+si],al
00000991  0000              add [bx+si],al
00000993  0000              add [bx+si],al
00000995  0000              add [bx+si],al
00000997  0000              add [bx+si],al
00000999  0000              add [bx+si],al
0000099B  0000              add [bx+si],al
0000099D  0000              add [bx+si],al
0000099F  0000              add [bx+si],al
000009A1  0000              add [bx+si],al
000009A3  0000              add [bx+si],al
000009A5  0000              add [bx+si],al
000009A7  0000              add [bx+si],al
000009A9  0000              add [bx+si],al
000009AB  0000              add [bx+si],al
000009AD  0000              add [bx+si],al
000009AF  0000              add [bx+si],al
000009B1  0000              add [bx+si],al
000009B3  0000              add [bx+si],al
000009B5  0000              add [bx+si],al
000009B7  0000              add [bx+si],al
000009B9  0000              add [bx+si],al
000009BB  0000              add [bx+si],al
000009BD  0000              add [bx+si],al
000009BF  0000              add [bx+si],al
000009C1  0000              add [bx+si],al
000009C3  0000              add [bx+si],al
000009C5  0000              add [bx+si],al
000009C7  0000              add [bx+si],al
000009C9  0000              add [bx+si],al
000009CB  0000              add [bx+si],al
000009CD  0000              add [bx+si],al
000009CF  0000              add [bx+si],al
000009D1  0000              add [bx+si],al
000009D3  0000              add [bx+si],al
000009D5  0000              add [bx+si],al
000009D7  0000              add [bx+si],al
000009D9  0000              add [bx+si],al
000009DB  0000              add [bx+si],al
000009DD  0000              add [bx+si],al
000009DF  0000              add [bx+si],al
000009E1  0000              add [bx+si],al
000009E3  0000              add [bx+si],al
000009E5  0000              add [bx+si],al
000009E7  0000              add [bx+si],al
000009E9  0000              add [bx+si],al
000009EB  0000              add [bx+si],al
000009ED  0000              add [bx+si],al
000009EF  0000              add [bx+si],al
000009F1  0000              add [bx+si],al
000009F3  0000              add [bx+si],al
000009F5  0000              add [bx+si],al
000009F7  0000              add [bx+si],al
000009F9  0000              add [bx+si],al
000009FB  0000              add [bx+si],al
000009FD  0000              add [bx+si],al
000009FF  0000              add [bx+si],al
00000A01  0000              add [bx+si],al
00000A03  0000              add [bx+si],al
00000A05  0000              add [bx+si],al
00000A07  0000              add [bx+si],al
00000A09  0000              add [bx+si],al
00000A0B  0000              add [bx+si],al
00000A0D  0000              add [bx+si],al
00000A0F  0000              add [bx+si],al
00000A11  0000              add [bx+si],al
00000A13  0000              add [bx+si],al
00000A15  0000              add [bx+si],al
00000A17  0000              add [bx+si],al
00000A19  0000              add [bx+si],al
00000A1B  0000              add [bx+si],al
00000A1D  0000              add [bx+si],al
00000A1F  0000              add [bx+si],al
00000A21  0000              add [bx+si],al
00000A23  0000              add [bx+si],al
00000A25  0000              add [bx+si],al
00000A27  0000              add [bx+si],al
00000A29  0000              add [bx+si],al
00000A2B  0000              add [bx+si],al
00000A2D  0000              add [bx+si],al
00000A2F  0000              add [bx+si],al
00000A31  0000              add [bx+si],al
00000A33  0000              add [bx+si],al
00000A35  0000              add [bx+si],al
00000A37  0000              add [bx+si],al
00000A39  0000              add [bx+si],al
00000A3B  0000              add [bx+si],al
00000A3D  0000              add [bx+si],al
00000A3F  0000              add [bx+si],al
00000A41  0000              add [bx+si],al
00000A43  0000              add [bx+si],al
00000A45  0000              add [bx+si],al
00000A47  0000              add [bx+si],al
00000A49  0000              add [bx+si],al
00000A4B  0000              add [bx+si],al
00000A4D  0000              add [bx+si],al
00000A4F  0000              add [bx+si],al
00000A51  0000              add [bx+si],al
00000A53  0005              add [di],al
00000A55  2E                cs
00000A56  82                db 0x82
00000A57  8174856BE3        xor word [si-0x7b],0xe36b
00000A5C  381E84C1          cmp [0xc184],bl
00000A60  5E                pop si
00000A61  BFF481            mov di,0x81f4
00000A64  668B2D            mov ebp,[di]
00000A67  837D80F8          cmp word [di-0x80],byte -0x8
00000A6B  4E                dec si
00000A6C  90                nop
00000A6D  807CFF07          cmp byte [si-0x1],0x7
00000A71  44                inc sp
00000A72  6668B1D668B4      push dword 0xb468d6b1
00000A78  D466              aam 0x66
00000A7A  31C0              xor ax,ax
00000A7C  B07F              mov al,0x7f
00000A7E  394587            cmp [di-0x79],ax
00000A81  F38B4582          rep mov ax,[di-0x7e]
00000A85  94                xchg ax,sp
00000A86  58                pop ax
00000A87  661566835540      adc eax,0x40558366
00000A8D  C741008944        mov word [bx+di+0x0],0x4489
00000A92  266895C8          es push word 0xc895
00000A96  66894CCC          mov [si-0x34],ecx
00000A9A  7446              jz 0xae2
00000A9C  07                pop es
00000A9D  050C74            add ax,0x740c
00000AA0  44                inc sp
00000AA1  00B442CD          add [si-0x32be],dh
00000AA5  13F8              adc di,ax
00000AA7  2BB0BB07          sub si,[bx+si+0x7bb]
00000AAB  0E                push cs
00000AAC  B686              mov dh,0x86
00000AAE  68B454            push word 0x54b4
00000AB1  669C              pushfd
00000AB3  0F85A306          jnz near 0x115a
00000AB7  68B566            push word 0x66b5
00000ABA  31D2              xor dx,dx
00000ABC  66F734            div dword [si]
00000ABF  8854A6            mov [si-0x5a],dl
00000AC2  631D              arpl [di],bx
00000AC4  266F              es outsw
00000AC6  7744              ja 0xb0c
00000AC8  8854B8            mov [si-0x48],dl
00000ACB  94                xchg ax,sp
00000ACC  4C                dec sp
00000ACD  3B448F            cmp ax,[si-0x71]
00000AD0  8D8308B4          lea ax,[bp+di-0x4bf8]
00000AD4  2A44A3            sub al,[si-0x5d]
00000AD7  94                xchg ax,sp
00000AD8  58                pop ax
00000AD9  7F38              jg 0xb13
00000ADB  B458              mov ah,0x58
00000ADD  294586            sub [di-0x7a],ax
00000AE0  61                popa
00000AE1  56                push si
00000AE2  683554            push word 0x5435
00000AE5  08A54DC0          or [di-0x3fb3],ah
00000AE9  E268              loop 0xb53
00000AEB  A4                movsb
00000AEC  CAFEC1            retf 0xc1fe
00000AEF  8D18              lea bx,[bx+si]
00000AF1  A6                cmpsb
00000AF2  CC                int3
00000AF3  5A                pop dx
00000AF4  52                push dx
00000AF5  8A74B5            mov dh,[si-0x4b]
00000AF8  0BB0708E          or si,[bx+si-0x7190]
00000AFC  C3                ret
00000AFD  31DB              xor bx,bx
00000AFF  B42C              mov ah,0x2c
00000B01  D1                db 0xd1
00000B02  37                aaa
00000B03  2508CC            and ax,0xcc08
00000B06  38E4              cmp ah,ah
00000B08  5A                pop dx
00000B09  58                pop ax
00000B0A  C1E051            shl ax,byte 0x51
00000B0D  45                inc bp
00000B0E  A6                cmpsb
00000B0F  01EC              add sp,bp
00000B11  1E                push ds
00000B12  0389C131          add cx,[bx+di+0x31c1]
00000B16  FF31              push word [bx+di]
00000B18  F6                db 0xf6
00000B19  8EDB              mov ds,bx
00000B1B  FC                cld
00000B1C  F3A5              rep movsw
00000B1E  1F                pop ds
00000B1F  E83E07            call 0x1260
00000B22  46                inc si
00000B23  BE3B81            mov si,0x813b
00000B26  E86306            call 0x118c
00000B29  1837              sbb [bx],dh
00000B2B  D80F              fmul dword [bx]
00000B2D  851D              test [di],bx
00000B2F  FF83EFCE          inc word [bp+di-0x3111]
00000B33  9F                lahf
00000B34  FF                db 0xff
00000B35  E82407            call 0x125c
00000B38  46                inc si
00000B39  BE3D81            mov si,0x813d
00000B3C  E84905            call 0x1088
00000B3F  AE                scasb
00000B40  A08200            mov al,[0x82]
00000B43  BE4081            mov si,0x8140
00000B46  E83D0E            call 0x1986
00000B49  B6BE              mov dh,0xbe
00000B4B  45                inc bp
00000B4C  81E8350B          sub ax,0xb35
00000B50  E4A8              in al,0xa8
00000B52  1E                push ds
00000B53  82                db 0x82
00000B54  F0EBFE            lock jmp short 0xb55
00000B57  BB174F            mov bx,0x4f17
00000B5A  673C36            cmp al,0x36
00000B5D  C6                db 0xc6
00000B5E  F6164696          not byte [0x9646]
00000B62  E670              out 0x70,al
00000B64  2E0DA047          cs or ax,0x47a0
00000B68  656F              gs outsw
00000B6A  6D                insw
00000B6B  052656            add ax,0x5626
00000B6E  16                push ss
00000B6F  40                inc ax
00000B70  204572            and [di+0x72],al
00000B73  726F              jc 0xbe4
00000B75  720B              jc 0xb82
00000B77  B10B              mov cl,0xb
00000B79  4E                dec si
00000B7A  CD10              int 0x10
00000B7C  46                inc si
00000B7D  8A43C0            mov al,[bp+di-0x40]
00000B80  75F2              jnz 0xb74
00000B82  C3                ret
00000B83  0000              add [bx+si],al
00000B85  0000              add [bx+si],al
00000B87  0000              add [bx+si],al
00000B89  0000              add [bx+si],al
00000B8B  0000              add [bx+si],al
00000B8D  0000              add [bx+si],al
00000B8F  0000              add [bx+si],al
00000B91  0000              add [bx+si],al
00000B93  0000              add [bx+si],al
00000B95  0000              add [bx+si],al
00000B97  0000              add [bx+si],al
00000B99  0000              add [bx+si],al
00000B9B  0000              add [bx+si],al
00000B9D  0000              add [bx+si],al
00000B9F  0000              add [bx+si],al
00000BA1  0000              add [bx+si],al
00000BA3  0000              add [bx+si],al
00000BA5  0000              add [bx+si],al
00000BA7  0000              add [bx+si],al
00000BA9  0000              add [bx+si],al
00000BAB  0000              add [bx+si],al
00000BAD  0000              add [bx+si],al
00000BAF  0000              add [bx+si],al
00000BB1  0000              add [bx+si],al
00000BB3  0000              add [bx+si],al
00000BB5  0000              add [bx+si],al
00000BB7  0000              add [bx+si],al
00000BB9  0000              add [bx+si],al
00000BBB  0000              add [bx+si],al
00000BBD  0000              add [bx+si],al
00000BBF  0000              add [bx+si],al
00000BC1  0000              add [bx+si],al
00000BC3  0000              add [bx+si],al
00000BC5  0000              add [bx+si],al
00000BC7  0000              add [bx+si],al
00000BC9  0000              add [bx+si],al
00000BCB  0000              add [bx+si],al
00000BCD  CD15              int 0x15
00000BCF  0000              add [bx+si],al
00000BD1  0034              add [si],dh
00000BD3  0208              add cl,[bx+si]
00000BD5  EA1C820000        jmp 0x0:0x821c
00000BDA  0CB5              or al,0xb5
00000BDC  C0098B            ror byte [bx+di],byte 0x8b
00000BDF  3000              xor [bx+si],al
00000BE1  0005              add [di],al
00000BE3  D7                xlatb
00000BE4  00FF              add bh,bh
00000BE6  FF                db 0xff
00000BE7  FF0F              dec word [bx]
00000BE9  A31C08            mov [0x81c],ax
00000BEC  ED                in ax,dx
00000BED  88ED              mov ch,ch
00000BEF  08EC              or ah,ch
00000BF1  06                push es
00000BF2  6BDF01            imul bx,di,byte +0x1
00000BF5  F006              lock push es
00000BF7  689ECF            push word 0xcf9e
00000BFA  B88161            mov ax,0x6181
00000BFD  B82CD1            mov ax,0xd12c
00000C00  366E              ss outsb
00000C02  897000            mov [bx+si+0x0],si
00000C05  FC                cld
00000C06  E86760            call 0x6c70
00000C09  08B15882          or [bx+di-0x7da8],dh
00000C0D  0081C2C3          add [bx+di-0x3c3e],al
00000C11  3008              xor [bx+si],cl
00000C13  BD1082            mov bp,0x8210
00000C16  008D55D8          add [di-0x27ab],cl
00000C1A  90                nop
00000C1B  0F                db 0x0f
00000C1C  CE                into
00000C1D  82                db 0x82
00000C1E  C3                ret
00000C1F  00E9              add cl,ch
00000C21  56                push si
00000C22  700F              jo 0xc33
00000C24  0F                db 0x0f
00000C25  F7                db 0xf7
00000C26  0E                push cs
00000C27  B168              mov cl,0x68
00000C29  DB4260            fild dword [bp+si+0x60]
00000C2C  0008              add [bx+si],cl
00000C2E  DB4260            fild dword [bp+si+0x60]
00000C31  0008              add [bx+si],cl
00000C33  DB4260            fild dword [bp+si+0x60]
00000C36  0009              add [bx+di],cl
00000C38  0000              add [bx+si],al
00000C3A  0000              add [bx+si],al
00000C3C  0FFF              ud0
00000C3E  F0009ACF0F        lock add [bp+si+0xfcf],bl
00000C43  FFF0              push ax
00000C45  0092CF0F          add [bp+si+0xfcf],dl
00000C49  FFF0              push ax
00000C4B  009E00FF          add [bp-0x100],bl
00000C4F  FF00              inc word [bx+si]
00000C51  0920              or [bx+si],sp
00000C53  0E                push cs
00000C54  B168              mov cl,0x68
00000C56  DB4260            fild dword [bp+si+0x60]
00000C59  0008              add [bx+si],cl
00000C5B  DB4260            fild dword [bp+si+0x60]
00000C5E  0008              add [bx+si],cl
00000C60  DB4260            fild dword [bp+si+0x60]
00000C63  0009              add [bx+di],cl
00000C65  027080            add dh,[bx+si-0x80]
00000C68  82                db 0x82
00000C69  0004              add [si],al
00000C6B  0000              add [bx+si],al
00000C6D  0000              add [bx+si],al
00000C6F  00FA              add dl,bh
00000C71  31C0              xor ax,ax
00000C73  8ED8              mov ds,ax
00000C75  66F1              o32 int1
00000C77  16                push ss
00000C78  C082F20C06        rol byte [bp+si+0xcf2],byte 0x6
00000C7D  683C81            push word 0x813c
00000C80  F22C06            repne sub al,0x6
00000C83  6E                outsb
00000C84  AE                scasb
00000C85  F8                clc
00000C86  2008              and [bx+si],cl
00000C88  06                push es
00000C89  6B81008ED8        imul ax,[bx+di-0x7200],byte -0x28
00000C8E  8EC0              mov es,ax
00000C90  8EE0              mov fs,ax
00000C92  8EE8              mov gs,ax
00000C94  8ED0              mov ss,ax
00000C96  8B424A            mov ax,[bp+si+0x4a]
00000C99  3F                aas
00000C9A  01F0              add ax,si
00000C9C  0A164820          or dl,[0x2048]
00000CA0  089C489C          or [si-0x63b8],bl
00000CA4  5A                pop dx
00000CA5  1F                pop ds
00000CA6  01F0              add ax,si
00000CA8  08942431          or [si+0x3124],dl
00000CAC  C0                db 0xc0
00000CAD  F1                int1
00000CAE  DC6820            fsubr qword [bx+si+0x20]
00000CB1  0F11DC            movups xmm4,xmm3
00000CB4  C8200C3F          enter 0xc20,0x3f
00000CB8  115C08            adc [si+0x8],bx
00000CBB  200F              and [bx],cl
00000CBD  1DCC82            sbb ax,0x82cc
00000CC0  00F1              add cl,dh
00000CC2  1DC682            sbb ax,0x82c6
00000CC5  0089E0A3          add [bx+di-0x5c20],cl
00000CC9  64                fs
00000CCA  82                db 0x82
00000CCB  008B424A          add [bp+di+0x4a42],cl
00000CCF  3F                aas
00000CD0  01F0              add ax,si
00000CD2  0B8F01F0          or cx,[bx-0xfff]
00000CD6  089C489C          or [si-0x63b8],bl
00000CDA  56                push si
00000CDB  6B82008ED8        imul ax,[bp+si-0x7200],byte -0x28
00000CE0  8EC0              mov es,ax
00000CE2  8EE0              mov fs,ax
00000CE4  8EE8              mov gs,ax
00000CE6  8ED0              mov ss,ax
00000CE8  EA69830018        jmp 0x1800:0x8369
00000CED  0F20C0            mov eax,cr0
00000CF0  6683E0FE          and eax,byte -0x2
00000CF4  F22C06            repne sub al,0x6
00000CF7  6E                outsb
00000CF8  A7                cmpsw
00000CF9  B83000            mov ax,0x30
00000CFC  06                push es
00000CFD  631C              arpl [si],bx
00000CFF  08ED              or ch,ch
00000D01  88EC              mov ah,ch
00000D03  08EE              or dh,ch
00000D05  08EE              or dh,ch
00000D07  88ED              mov ch,ch
00000D09  0FB66C35          movzx bp,[si+0x35]
00000D0D  58                pop ax
00000D0E  9E                sahf
00000D0F  55                push bp
00000D10  7565              jnz 0xd77
00000D12  389C389C          cmp [si-0x63c8],bl
00000D16  F31C03            rep sbb al,0x3
00000D19  1F                pop ds
00000D1A  685D27            push word 0x275d
00000D1D  82                db 0x82
00000D1E  9F                lahf
00000D1F  B6C1              mov dh,0xc1
00000D21  384C97            cmp [si-0x69],cl
00000D24  41                inc cx
00000D25  0FB6890210        movzx cx,[bx+di+0x1002]
00000D2A  08A8C800          or [bx+si+0xc8],ch
00000D2E  1003              adc [bp+di],al
00000D30  1CE1              sbb al,0xe1
00000D32  F8                clc
00000D33  3DFE00            cmp ax,0xfe
00000D36  07                pop es
00000D37  E52D              in ax,0x2d
00000D39  FF00              inc word [bx+si]
00000D3B  04AE              add al,0xae
00000D3D  BD389F            mov bp,0x9f38
00000D40  05B5E5            add ax,0xe5b5
00000D43  F5                cmc
00000D44  DC38              fdivr qword [bx+si]
00000D46  4D                dec bp
00000D47  27                daa
00000D48  42                inc dx
00000D49  084C07            or [si+0x7],cl
00000D4C  41                inc cx
00000D4D  CF                iret
00000D4E  B6C0              mov dh,0xc0
00000D50  FB                sti
00000D51  688021            push word 0x2180
00000D54  00FB              add bl,bh
00000D56  6D                insw
00000D57  2F                das
00000D58  B682              mov dh,0x82
00000D5A  0210              add dl,[bx+si]
00000D5C  08A84100          or [bx+si+0x41],ch
00000D60  100C              adc [si],cl
00000D62  331C              xor bx,[si]
00000D64  0C35              or al,0x35
00000D66  58                pop ax
00000D67  9E                sahf
00000D68  55                push bp
00000D69  7565              jnz 0xdd0
00000D6B  383EC3C8          cmp [0xc8c3],bh
00000D6F  94                xchg ax,sp
00000D70  5D                pop bp
00000D71  88955E48          mov [di+0x485e],dl
00000D75  94                xchg ax,sp
00000D76  DD431C            fld qword [bp+di+0x1c]
00000D79  03B45D87          add si,[si-0x78a3]
00000D7D  DEC7              faddp st7
00000D7F  48                dec ax
00000D80  50                push ax
00000D81  3100              xor [bx+si],ax
00000D83  FF                db 0xff
00000D84  FF                db 0xff
00000D85  FF                db 0xff
00000D86  FF40EB            inc word [bx+si-0x15]
00000D89  ED                in ax,dx
00000D8A  31C0              xor ax,ax
00000D8C  3B45E4            cmp ax,[di-0x1c]
00000D8F  7DA8              jnl 0xd39
00000D91  B7DD              mov bh,0xdd
00000D93  4C                dec sp
00000D94  647040            fs jo 0xdd7
00000D97  EBF1              jmp short 0xd8a
00000D99  8B45E4            mov ax,[di-0x1c]
00000D9C  40                inc ax
00000D9D  8945DC            mov [di-0x24],ax
00000DA0  31C9              xor cx,cx
00000DA2  C745E00000        mov word [di-0x20],0x0
00000DA7  8B5DE0            mov bx,[di-0x20]
00000DAA  395DD8            cmp [di-0x28],bx
00000DAD  F8                clc
00000DAE  EC                in al,dx
00000DAF  B000              mov al,0x0
00000DB1  31DB              xor bx,bx
00000DB3  395DE4            cmp [di-0x1c],bx
00000DB6  7ED8              jng 0xd90
00000DB8  0BCB              or cx,bx
00000DBA  0101              add [bx+di],ax
00000DBC  0007              add [bx],al
00000DBE  5D                pop bp
00000DBF  43                inc bx
00000DC0  EBEE              jmp short 0xdb0
00000DC2  758F              jnz 0xd53
00000DC4  F4                hlt
00000DC5  5E                pop si
00000DC6  034DDC            add cx,[di-0x24]
00000DC9  EBD6              jmp short 0xda1
00000DCB  8B45E0            mov ax,[di-0x20]
00000DCE  891C              mov [si],bx
00000DD0  8503              test [bp+di],ax
00000DD2  100F              adc [bx],cl
00000DD4  B684              mov dh,0x84
00000DD6  B010              mov al,0x10
00000DD8  100F              adc [bx],cl
00000DDA  B690              mov dh,0x90
00000DDC  0210              add dl,[bx+si]
00000DDE  0B8FF000          or cx,[bx+0xf0]
00000DE2  29D0              sub ax,dx
00000DE4  31F6              xor si,si
00000DE6  8DB90101          lea di,[bx+di+0x101]
00000DEA  00897DD0          add [bx+di-0x2f83],cl
00000DEE  FB                sti
00000DEF  69000100          imul ax,[bx+si],word 0x1
00000DF3  3975E4            cmp [di-0x1c],si
00000DF6  7C1F              jl 0xe17
00000DF8  894DC8            mov [di-0x38],cx
00000DFB  8B45D0            mov ax,[di-0x30]
00000DFE  8D3C              lea di,[si]
00000E00  30FB              xor bl,bh
00000E02  678955CC          mov [ebp-0x34],dx
00000E06  E81CFF            call 0xd25
00000E09  FF                db 0xff
00000E0A  FF887468          dec word [bx+si+0x6874]
00000E0E  B4DC              mov ah,0xdc
00000E10  88B55CCE          mov [di-0x31a4],dh
00000E14  BDC8B4            mov bp,0xb4c8
00000E17  5E                pop si
00000E18  0408              add al,0x8
00000E1A  94                xchg ax,sp
00000E1B  5D                pop bp
00000E1C  08B45DC8          or [si-0x37a3],dh
00000E20  D3C1              rol cx,cl
00000E22  8B75D0            mov si,[di-0x30]
00000E25  3975D8            cmp [di-0x28],si
00000E28  748D              jz 0xdb7
00000E2A  31F6              xor si,si
00000E2C  FB                sti
00000E2D  6943B01010        imul ax,[bp+di-0x50],word 0x1010
00000E32  08D8              or al,bl
00000E34  7010              jo 0xe46
00000E36  1008              adc [bx+si],cl
00000E38  94                xchg ax,sp
00000E39  5C                pop sp
00000E3A  C3                ret
00000E3B  97                xchg ax,di
00000E3C  5E                pop si
00000E3D  47                inc di
00000E3E  C22FB6            ret 0xb62f
00000E41  84E0              test al,ah
00000E43  1010              adc [bx+si],dl
00000E45  0894DC48          or [si+0x48dc],dl
00000E49  95                xchg ax,bp
00000E4A  5C                pop sp
00000E4B  8E8D1FEF          mov cs,[di-0x10e1]
00000E4F  FF                db 0xff
00000E50  F8                clc
00000E51  B55C              mov ch,0x5c
00000E53  C3                ret
00000E54  0432              add al,0x32
00000E56  46                inc si
00000E57  8B4DC4            mov cx,[di-0x3c]
00000E5A  8B55C8            mov dx,[di-0x38]
00000E5D  EBD9              jmp short 0xe38
00000E5F  FF45D0            inc word [di-0x30]
00000E62  37                aaa
00000E63  DD                db 0xdd
00000E64  CE                into
00000E65  BB68B7            mov bx,0xb768
00000E68  5D                pop bp
00000E69  84E8              test al,ch
00000E6B  B45E              mov ah,0x5e
00000E6D  4F                dec di
00000E6E  7D08              jnl 0xe78
00000E70  94                xchg ax,sp
00000E71  5D                pop bp
00000E72  88B5DDCF          mov [di-0x3023],dh
00000E76  AF                scasw
00000E77  DE35              fidiv word [di]
00000E79  DE485F            fimul word [bx+si+0x5f]
00000E7C  678578B3          test [eax-0x4d],di
00000E80  CB                retf
00000E81  50                push ax
00000E82  3100              xor [bx+si],ax
00000E84  83FFFF            cmp di,byte -0x1
00000E87  7445              jz 0xece
00000E89  89D8              mov ax,bx
00000E8B  2B45E4            sub ax,[di-0x1c]
00000E8E  8945DC            mov [di-0x24],ax
00000E91  C645E003          mov byte [di-0x20],0x3
00000E95  1C93              sbb al,0x93
00000E97  94                xchg ax,sp
00000E98  DE47E2            fiadd word [bx-0x1e]
00000E9B  38B45D4F          cmp [si+0x4f5d],dh
00000E9F  B614              mov dh,0x14
00000EA1  88B45DCF          mov [si-0x30a3],dh
00000EA5  B684              mov dh,0x84
00000EA7  1010              adc [bx+si],dl
00000EA9  1008              adc [bx+si],cl
00000EAB  94                xchg ax,sp
00000EAC  DD0E868F          fisttp qword [0x8f86]
00000EB0  EF                out dx,ax
00000EB1  FFF3              push bx
00000EB3  045E              add al,0x5e
00000EB5  08B4DD04          or [si+0x4dd],dh
00000EB9  1E                push ds
00000EBA  BD88A4            mov bp,0xa488
00000EBD  5E                pop si
00000EBE  0328              add bp,[bx+si]
00000EC0  3010              xor [bx+si],dl
00000EC2  1008              adc [bx+si],cl
00000EC4  B4DD              mov ah,0xdd
00000EC6  48                dec ax
00000EC7  8439              test [bx+di],bh
00000EC9  4E                dec si
00000ECA  35DD8E            xor ax,0x8edd
00000ECD  BA583C            mov dx,0x3c58
00000ED0  43                inc bx
00000ED1  C5B5E5F5          lds si,[di-0xa1b]
00000ED5  DC35              fdiv qword [di]
00000ED7  58                pop ax
00000ED8  9E                sahf
00000ED9  55                push bp
00000EDA  7565              jnz 0xf41
00000EDC  383EC4C8          cmp [0xc8c4],bh
00000EE0  94                xchg ax,sp
00000EE1  5B                pop bx
00000EE2  C8955DC8          enter 0x5d95,0xc8
00000EE6  94                xchg ax,sp
00000EE7  DE08              fimul word [bx+si]
00000EE9  5C                pop sp
00000EEA  9F                lahf
00000EEB  84FB              test bl,bh
00000EED  2001              and [bx+di],al
00000EEF  D08945D4          ror byte [bx+di-0x2bbb],1
00000EF3  8D4C8F            lea cx,[si-0x71]
00000EF6  F8                clc
00000EF7  9C                pushf
00000EF8  83B45D4728        xor word [si+0x475d],byte +0x28
00000EFD  803807            cmp byte [bx+si],0x7
00000F00  53                push bx
00000F01  48                dec ax
00000F02  EBF3              jmp short 0xef7
00000F04  29C1              sub cx,ax
00000F06  BB2000            mov bx,0x20
00000F09  8B45E0            mov ax,[di-0x20]
00000F0C  99                cwd
00000F0D  F7FB              idiv bx
00000F0F  39C1              cmp cx,ax
00000F11  F8                clc
00000F12  FC                cld
00000F13  E200              loop 0xf15
00000F15  C6                db 0xc6
00000F16  50                push ax
00000F17  2100              and [bx+si],ax
00000F19  0BA00100          or sp,[bx+si+0x1]
00000F1D  B018              mov al,0x18
00000F1F  82                db 0x82
00000F20  8882FF00          mov [bp+si+0xff],al
00000F24  0FB6C8            movzx cx,al
00000F27  88910210          mov [bx+di+0x1002],dl
00000F2B  084C07            or [si+0x7],cl
00000F2E  98                cbw
00000F2F  8D4983            lea cx,[bx+di-0x7d]
00000F32  F01DEB2D          lock sbb ax,0x2deb
00000F36  1E                push ds
00000F37  0428              add al,0x28
00000F39  1F                pop ds
00000F3A  AF                scasw
00000F3B  F01007            lock adc [bx],al
00000F3E  5D                pop bp
00000F3F  8837              mov [bx],dh
00000F41  DDC0              ffree st0
00000F43  F8                clc
00000F44  48                dec ax
00000F45  E200              loop 0xf47
00000F47  8B4DDC            mov cx,[di-0x24]
00000F4A  34DE              xor al,0xde
00000F4C  081F              or [bx],bl
00000F4E  90                nop
00000F4F  90                nop
00000F50  107624            adc [bp+0x24],dh
00000F53  6945DCC800        imul ax,[di-0x24],word 0xc8
00000F58  031D              add bx,[di]
00000F5A  2F                das
00000F5B  7F1C              jg 0xf79
00000F5D  1E                push ds
00000F5E  098945D0          or [bx+di-0x2fbb],cx
00000F62  6945E0C800        imul ax,[di-0x20],word 0xc8
00000F67  031D              add bx,[di]
00000F69  2F                das
00000F6A  7F1C              jg 0xf88
00000F6C  1E                push ds
00000F6D  098945CC          or [bx+di-0x33bb],cx
00000F71  EBC8              jmp short 0xf3b
00000F73  B45E              mov ah,0x5e
00000F75  08945CC8          or [si-0x37a4],dl
00000F79  B45D              mov ah,0x5d
00000F7B  C8945D0C          enter 0x5d94,0xc
00000F7F  745C              jz 0xfdd
00000F81  0FF100            psllw mm0,[bx+si]
00000F84  C745C80000        mov word [di-0x38],0x0
00000F89  8B45D0            mov ax,[di-0x30]
00000F8C  345C              xor al,0x5c
00000F8E  08B55CC3          or [di-0x3ca4],dh
00000F92  55                push bp
00000F93  C081FAFF10        rol byte [bx+di-0x6],byte 0x10
00000F98  07                pop es
00000F99  67F3DFF1          rep fcomip st0,st1
00000F9D  007678            add [bp+0x78],dh
00000FA0  C1E898            shr ax,byte 0x98
00000FA3  94                xchg ax,sp
00000FA4  5D                pop bp
00000FA5  88B45BC3          mov [si-0x3ca5],dh
00000FA9  45                inc bp
00000FAA  C88945C4          enter 0x4589,0xc4
00000FAE  89C1              mov cx,ax
00000FB0  31C0              xor ax,ax
00000FB2  E98A00            jmp 0x103f
00000FB5  089D7C1E          or [di+0x1e7c],bl
00000FB9  FA                cli
00000FBA  31DB              xor bx,bx
00000FBC  8B45D8            mov ax,[di-0x28]
00000FBF  8B75E4            mov si,[di-0x1c]
00000FC2  8D7430            lea si,[si+0x30]
00000FC5  FF89D989          dec word [bx+di-0x7627]
00000FC9  F2B80E10          repne mov ax,0x100e
00000FCD  0E                push cs
00000FCE  8DBFCFFF          lea di,[bx-0x31]
00000FD2  F8                clc
00000FD3  8830              mov [bx+si],dh
00000FD5  D100              rol word [bx+si],1
00000FD7  43                inc bx
00000FD8  395DE4            cmp [di-0x1c],bx
00000FDB  7FE6              jg 0xfc3
00000FDD  31C0              xor ax,ax
00000FDF  80B80D1000        cmp byte [bx+si+0x100d],0x0
00000FE4  F8                clc
00000FE5  59                pop cx
00000FE6  40                inc ax
00000FE7  004039            add [bx+si+0x39],al
00000FEA  45                inc bp
00000FEB  E47F              in al,0x7f
00000FED  ED                in ax,dx
00000FEE  F8                clc
00000FEF  58                pop ax
00000FF0  800031            add byte [bx+si],0x31
00000FF3  C08A900E10        ror byte [bp+si+0xe90],byte 0x10
00000FF8  08B7DC48          or [bx+0x48dc],dh
00000FFC  817408145C        xor word [si+0x8],0x5c14
00001001  40                inc ax
00001002  2003              and [bp+di],al
00001004  94                xchg ax,sp
00001005  5D                pop bp
00001006  87FE              xchg di,si
00001008  8F                db 0x8f
00001009  F4                hlt
0000100A  5C                pop sp
0000100B  8F                db 0x8f
0000100C  F4                hlt
0000100D  DC08              fmul qword [bx+si]
0000100F  17                pop ss
00001010  DC80200F          fadd qword [bx+si+0xf20]
00001014  855AFF            test [bp+si-0x1],bx
00001017  FF                db 0xff
00001018  FF8B5DD0          dec word [bp+di-0x2fa3]
0000101C  15DBC8            adc ax,0xc8db
0000101F  B7DC              mov bh,0xdc
00001021  C17DD429          sar word [di-0x2c],byte 0x29
00001025  5D                pop bp
00001026  DC29              fsubr qword [bx+di]
00001028  7DE0              jnl 0x100a
0000102A  E9EDFE            jmp 0xf1a
0000102D  FF                db 0xff
0000102E  FF                db 0xff
0000102F  3B45D8            cmp ax,[di-0x28]
00001032  7D11              jnl 0x1045
00001034  8A19              mov bl,[bx+di]
00001036  88980E10          mov [bx+si+0x100e],bl
0000103A  0408              add al,0x8
0000103C  1C10              sbb al,0x10
0000103E  200EBEA8          and [0xa8be],cl
00001042  9D                popf
00001043  0C1E              or al,0x1e
00001045  898945E4          mov [bx+di-0x1bbb],cx
00001049  8B4DD4            mov cx,[di-0x2c]
0000104C  34DC              xor al,0xdc
0000104E  831C03            sbb word [si],byte +0x3
00001051  B45E              mov ah,0x5e
00001053  4F                dec di
00001054  8D47FF            lea ax,[bx-0x1]
00001057  FF                db 0xff
00001058  FF8A198B          dec word [bp+si-0x74e7]
0000105C  75D8              jnz 0x1036
0000105E  889C60E1          mov [si-0x1ea0],bl
00001062  004081            add [bx+si-0x7f],al
00001065  C10200            rol word [bp+si],byte 0x0
00001068  EBE2              jmp short 0x104c
0000106A  8D7713            lea si,[bx+0x13]
0000106D  1C93              sbb al,0x93
0000106F  1D2EB1            sbb ax,0xb12e
00001072  68A9C2            push word 0xc2a9
00001075  0D1008            or ax,0x810
00001078  89C8              mov ax,cx
0000107A  0101              add [bx+di],ax
0000107C  004039            add [bx+si+0x39],al
0000107F  F8                clc
00001080  7EED              jng 0x106f
00001082  42                inc dx
00001083  1F                pop ds
00001084  131C              adc bx,[si]
00001086  039FA7CE          add bx,[bx-0x3159]
0000108A  43                inc bx
0000108B  9C                pushf
0000108C  77EA              ja 0x1078
0000108E  C680071000        mov byte [bx+si+0x1007],0x0
00001093  40                inc ax
00001094  EBF2              jmp short 0x1088
00001096  B90710            mov cx,0x1007
00001099  089FA89F          or [bx-0x6058],bl
0000109D  8E854FCF          mov es,[di-0x30b1]
000010A1  FFF3              push bx
000010A3  1F                pop ds
000010A4  631D              arpl [di],bx
000010A6  B8B45D            mov ax,0x5db4
000010A9  8345E489          add word [di-0x1c],byte -0x77
000010AD  45                inc bp
000010AE  B84889            mov ax,0x8948
000010B1  45                inc bp
000010B2  B089              mov al,0x89
000010B4  5D                pop bp
000010B5  B43B              mov ah,0x3b
000010B7  75B8              jnz 0x1071
000010B9  7D35              jnl 0x10f0
000010BB  B9FF00            mov cx,0xff
000010BE  029F18D5          add bl,[bx-0x2ae8]
000010C2  7FFB              jg 0x10bf
000010C4  807100E8          xor byte [bx+di+0x0],0xe8
000010C8  BEFBFF            mov si,0xfffb
000010CB  FF                db 0xff
000010CC  3A860010          cmp al,[bp+0x1000]
000010D0  07                pop es
000010D1  51                push cx
000010D2  688830            push word 0x3088
000010D5  8100438B          add word [bx+si],0x8b43
000010D9  45                inc bp
000010DA  B029              mov al,0x29
000010DC  F08B55B4          lock mov dx,[di-0x4c]
000010E0  894950            mov [bx+di+0x50],cx
000010E3  91                xchg ax,cx
000010E4  0046EB            add [bp-0x15],al
000010E7  C3                ret
000010E8  31C0              xor ax,ax
000010EA  39C3              cmp bx,ax
000010EC  74AC              jz 0x109a
000010EE  680010            push word 0x1000
000010F1  1001              adc [bx+di],al
000010F3  40                inc ax
000010F4  EBF2              jmp short 0x10e8
000010F6  A00D10            mov al,[0x100d]
000010F9  08883010          or [bx+si+0x1030],cl
000010FD  1008              adc [bx+si],cl
000010FF  D4B1              aam 0xb1
00001101  8D41B8            lea ax,[bx+di-0x48]
00001104  94                xchg ax,sp
00001105  5B                pop bx
00001106  8894DB4C          mov [si+0x4cdb],dl
0000110A  745B              jz 0x1167
0000110C  0000              add [bx+si],al
0000110E  0BF1              or si,cx
00001110  0003              add [bp+di],al
00001112  97                xchg ax,di
00001113  DE47E4            fiadd word [bx-0x1c]
00001116  B31F              mov bl,0x1f
00001118  639F3742          arpl [bx+0x4237],bx
0000111C  A894              test al,0x94
0000111E  DAC8              fcmove st0
00001120  B45B              mov ah,0x5b
00001122  0FB6943001        movzx dx,[si+0x130]
00001127  0100              add [bx+si],ax
00001129  FB                sti
0000112A  686081            push word 0x8160
0000112D  00E8              add al,ch
0000112F  87FB              xchg di,bx
00001131  FF                db 0xff
00001132  FF8B55B4          dec word [bp+di-0x4bab]
00001136  88841601          mov [si+0x116],al
0000113A  0100              add [bx+si],ax
0000113C  46                inc si
0000113D  8B4DAC            mov cx,[di-0x54]
00001140  EBD2              jmp short 0x1114
00001142  8A870D10          mov al,[bx+0x100d]
00001146  08B75B88          or [bx-0x77a5],dh
0000114A  886110            mov [bx+di+0x10],ah
0000114D  1004              adc [si],al
0000114F  714D              jno 0x119e
00001151  B814DB            mov ax,0xdb14
00001154  014DB4            add [di-0x4c],cx
00001157  EBB0              jmp short 0x1109
00001159  B90F10            mov cx,0x100f
0000115C  089DA8B4          or [di-0x4b58],bl
00001160  5E                pop si
00001161  4E                dec si
00001162  874FBF            xchg cx,[bx-0x41]
00001165  FFF3              push bx
00001167  1C03              sbb al,0x3
00001169  9C                pushf
0000116A  3F                aas
0000116B  844DFE            test [di-0x2],cl
0000116E  FF                db 0xff
0000116F  FF8B1485          dec word [bp+di-0x7aec]
00001173  0910              or [bx+si],dx
00001175  08A880F1          or [bx+si-0xe80],ch
00001179  0030              add [bx+si],dh
0000117B  8A0E1004          mov cl,[0x410]
0000117F  0E                push cs
00001180  BE283C            mov si,0x3c28
00001183  44                inc sp
00001184  C5B5E5F5          lds si,[di-0xa1b]
00001188  DC3E86F0          fdivr qword [0xf086]
0000118C  0084C075          add [si+0x75c0],al
00001190  1C35              sbb al,0x35
00001192  5E                pop si
00001193  86FF              xchg bh,bh
00001195  AF                scasw
00001196  FF                db 0xff
00001197  FB                sti
00001198  8124CD15          and word [si],0x15cd
0000119C  66E8FFAFFFF5      call dword 0xf5ffc1a1
000011A2  DE853000          fiadd word [di+0x30]
000011A6  84C0              test al,al
000011A8  751C              jnz 0x11c6
000011AA  3E49              ds dec cx
000011AC  224FCC            and cl,[bx-0x34]
000011AF  2E692E84100084    imul bp,[cs:0x1084],word 0x8400
000011B6  C0                db 0xc0
000011B7  7512              jnz 0x11cb
000011B9  C3                ret
000011BA  E464              in al,0x64
000011BC  2427              and al,0x27
000011BE  5F                pop di
000011BF  AE                scasb
000011C0  46                inc si
000011C1  42                inc dx
000011C2  41                inc cx
000011C3  744E              jz 0x1213
000011C5  46                inc si
000011C6  0E                push cs
000011C7  BF6C3E            mov di,0x3e6c
000011CA  8EAFFFFF          mov gs,[bx-0x1]
000011CE  FB                sti
000011CF  0D1E66            or ax,0x661e
000011D2  4E                dec si
000011D3  46                inc si
000011D4  42                inc dx
000011D5  42                inc dx
000011D6  75FA              jnz 0x11d2
000011D8  B0DF              mov al,0xdf
000011DA  E660              out 0x60,al
000011DC  E8D7FF            call 0x11b6
000011DF  FF                db 0xff
000011E0  FFB0FFE6          push word [bx+si-0x1901]
000011E4  64E8CEFF          fs call 0x11b6
000011E8  FF                db 0xff
000011E9  FF                db 0xff
000011EA  E85000            call 0x123d
000011ED  84C0              test al,al
000011EF  7597              jnz 0x1188
000011F1  C3                ret
000011F2  B96400            mov cx,0x64
000011F5  0E                push cs
000011F6  8700              xchg ax,[bx+si]
000011F8  084C07            or [si+0x7],cl
000011FB  42                inc dx
000011FC  E2F5              loop 0x11f3
000011FE  C3                ret
000011FF  53                push bx
00001200  51                push cx
00001201  31C0              xor ax,ax
00001203  BB0800            mov bx,0x8
00001206  0538AB            add ax,0xab38
00001209  81C30010          add bx,0x1000
0000120D  08A35B88          or [bp+di-0x77a5],ah
00001211  C5                db 0xc5
00001212  FECD              dec ch
00001214  882B              mov [bp+di],ch
00001216  E680              out 0x80,al
00001218  E680              out 0x80,al
0000121A  53                push bx
0000121B  81C30010          add bx,0x1000
0000121F  08A2B28E          or [bp+si-0x714e],ah
00001223  85B88B59          test [bx+si+0x598b],di
00001227  5B                pop bx
00001228  C3                ret
00001229  8D7602            lea si,[bp+0x2]
0000122C  B0AD              mov al,0xad
0000122E  1B00              sbb ax,[bx+si]
00001230  10FE              adc dh,bh
00001232  4F                dec di
00001233  51                push cx
00001234  E460              in al,0x60
00001236  91                xchg ax,cx
00001237  0000              add [bx+si],al
00001239  1000              adc [bx+si],al
0000123B  0000              add [bx+si],al
0000123D  0008              add [bx+si],cl
0000123F  0910              or [bx+si],dx
00001241  08B53CBD          or [di-0x42c4],dh
00001245  F0FF7089          lock push word [bx+si-0x77]
00001249  EC                in al,dx
0000124A  B920D0            mov cx,0xd020
0000124D  03D8              add bx,ax
0000124F  2100              and [bx+si],ax
00001251  BE0010            mov si,0x1000
00001254  0BF0              or si,ax
00001256  8000FC            add byte [bx+si],0xfc
00001259  F3A4              rep movsb
0000125B  B8A989            mov ax,0x89a9
0000125E  00FF              add bh,bh
00001260  E089              loopne 0x11eb
00001262  151882            adc ax,0x8218
00001265  00C1              add cl,al
00001267  EA18E870F9        jmp 0xf970:0xe818
0000126C  FF                db 0xff
0000126D  FF                db 0xff
0000126E  E962F8            jmp 0xad3
00001271  BF0010            mov di,0x1000
00001274  0BE2              or sp,dx
00001276  08D0              or al,dl
00001278  0578BD            add ax,0xbd78
0000127B  C82008D1          enter 0x820,0xd1
0000127F  CF                iret
00001280  51                push cx
00001281  E8DF00            call 0x1363
00001284  0595E8            add ax,0xe895
00001287  B151              mov cl,0x51
00001289  8820              mov [bx+si],ah
0000128B  0BF2              or si,dx
0000128D  7830              js 0x12bf
0000128F  0B9D2820          or bx,[di+0x2028]
00001293  0B8C6820          or cx,[si+0x2068]
00001297  0FFE68D4          paddd mm5,[bx+si-0x2c]
0000129B  8389C18B18        or word [bx+di-0x743f],byte +0x18
000012A0  B55F              mov ch,0x5f
000012A2  4C                dec sp
000012A3  1E                push ds
000012A4  AB                stosw
000012A5  F7E2              mul dx
000012A7  3B45F0            cmp ax,[di-0x10]
000012AA  7628              jna 0x12d4
000012AC  8945F4            mov [di-0xc],ax
000012AF  BA0800            mov dx,0x8
000012B2  2B11              sub dx,[bx+di]
000012B4  C1EA51            shr dx,byte 0x51
000012B7  11F8              adc ax,di
000012B9  9C                pushf
000012BA  817DF40001        cmp word [di-0xc],0x100
000012BF  73CC              jnc 0x128d
000012C1  16                push ss
000012C2  5F                pop di
000012C3  08AC8845          or [si+0x4588],ch
000012C7  F0C165F489        lock shl word [di-0xc],byte 0x89
000012CC  DC32              fdiv qword [bp+si]
000012CE  94                xchg ax,sp
000012CF  5F                pop di
000012D0  42                inc dx
000012D1  94                xchg ax,sp
000012D2  5F                pop di
000012D3  08B11C1E          or [bx+di+0x1e1c],dh
000012D7  A5                movsw
000012D8  2911              sub [bx+di],dx
000012DA  F9                stc
000012DB  EBD8              jmp short 0x12b5
000012DD  FB                sti
000012DE  6C                insb
000012DF  93                xchg ax,bx
000012E0  1D2524            sbb ax,0x2425
000012E3  252505            and ax,0x525
000012E6  1521D0            adc ax,0xd021
000012E9  E8A2FF            call 0x128e
000012EC  FF                db 0xff
000012ED  FF5A59            call far [bp+si+0x59]
000012F0  7398              jnc 0x128a
000012F2  B442              mov ah,0x42
000012F4  44                inc sp
000012F5  94                xchg ax,sp
000012F6  42                inc dx
000012F7  48                dec ax
000012F8  F9                stc
000012F9  11D2              adc dx,dx
000012FB  58                pop ax
000012FC  D124              shl word [si],1
000012FE  24E2              and al,0xe2
00001300  E159              loope 0x135b
00001302  29CA              sub dx,cx
00001304  59                pop cx
00001305  C3                ret
00001306  50                push ax
00001307  83C00E            add ax,byte +0xe
0000130A  87FF              xchg di,di
0000130C  FF                db 0xff
0000130D  FFF5              push bp
0000130F  8721              xchg sp,[bx+di]
00001311  86A0B138          xchg ah,[bx+si+0x38b1]
00001315  3C02              cmp al,0x2
00001317  8B5424            mov dx,[si+0x24]
0000131A  CD3E              int 0x3e
0000131C  21D0              and ax,dx
0000131E  E8B4FF            call 0x12d5
00001321  FF                db 0xff
00001322  FF581C            call far [bx+si+0x1c]
00001325  2C35              sub al,0x35
00001327  083C              or [si],bh
00001329  01E8              add ax,bp
0000132B  5B                pop bx
0000132C  FF                db 0xff
0000132D  FF                db 0xff
0000132E  FF5872            call far [bx+si+0x72]
00001331  B6A8              mov dh,0xa8
00001333  B135              mov cl,0x35
00001335  82                db 0x82
00001336  000EBD86          add [0x86bd],cl
0000133A  A10521            mov ax,[0x2105]
0000133D  00B18EBD          add [bx+di-0x4272],dh
00001341  58                pop ax
00001342  845F8A            test [bx-0x76],bl
00001345  AF                scasw
00001346  F4                hlt
00001347  5F                pop di
00001348  CC                int3
00001349  35589E            xor ax,0x9e58
0000134C  58                pop ax
0000134D  3EC2457F          ds ret 0x7f45
00001351  C89DFB93          enter 0xfb9d,0x93
00001355  61                popa
00001356  F00B80400F        lock or ax,[bx+si+0xf40]
0000135B  3AB5F31C          cmp dh,[di+0x1cf3]
0000135F  08945FC8          or [si-0x37a1],dl
00001363  94                xchg ax,sp
00001364  5F                pop di
00001365  88945EC4          mov [si-0x3ba2],dl
00001369  08945E88          or [si-0x77a2],dl
0000136D  94                xchg ax,sp
0000136E  5E                pop si
0000136F  48                dec ax
00001370  94                xchg ax,sp
00001371  5E                pop si
00001372  08945DCF          or [si-0x30a3],dl
00001376  7D88              jnl 0x1300
00001378  94                xchg ax,sp
00001379  5F                pop di
0000137A  44                inc sp
0000137B  0B15              or dx,[di]
0000137D  C1E08A            shl ax,byte 0x8a
00001380  CE                into
00001381  2F                das
00001382  A894              test al,0x94
00001384  5F                pop di
00001385  08B45FC3          or [si-0x3ca1],dh
00001389  B458              mov ah,0x58
0000138B  7248              jc 0x13d5
0000138D  9E                sahf
0000138E  C5                db 0xc5
0000138F  DC38              fdivr qword [bx+si]
00001391  3E03508B          add dx,[ds:bx+si-0x75]
00001395  55                push bp
00001396  EC                in al,dx
00001397  C1E241            shl dx,byte 0x41
0000139A  D050E8            rcl byte [bx+si-0x18],1
0000139D  DCFE              fdiv to st6
0000139F  FF                db 0xff
000013A0  FF                db 0xff
000013A1  F8                clc
000013A2  29A0008B          sub [bx+si-0x7500],sp
000013A6  45                inc bp
000013A7  FC                cld
000013A8  83E00C            and ax,byte +0xc
000013AB  1E                push ds
000013AC  038B55F8          add cx,[bp+di-0x7ab]
000013B0  C1EA51            shr dx,byte 0x51
000013B3  D0BA0300          sar byte [bp+si+0x3],1
000013B7  F7E2              mul dx
000013B9  53                push bx
000013BA  67005042          add [eax+0x42],dl
000013BE  8B45E8            mov ax,[di-0x18]
000013C1  F7D8              neg ax
000013C3  FF34              push word [si]
000013C5  7807              js 0x13ce
000013C7  DEC7              faddp st7
000013C9  722F              jc 0x13fa
000013CB  81FA0100          cmp dx,0x1
000013CF  7340              jnc 0x1411
000013D1  31C0              xor ax,ax
000013D3  D024              shl byte [si],1
000013D5  2411              and al,0x11
000013D7  C05052C1          rcl byte [bx+si+0x52],byte 0xc1
000013DB  E088              loopne 0x1365
000013DD  D84201            fadd dword [bp+si+0x1]
000013E0  0034              add [si],dh
000013E2  42                inc dx
000013E3  4C                dec sp
000013E4  E885FE            call 0x126c
000013E7  FF                db 0xff
000013E8  FF                db 0xff
000013E9  F9                stc
000013EA  2C05              sub al,0x5
000013EC  A11D25            mov ax,[0x251d]
000013EF  93                xchg ax,bx
000013F0  8C874D18          mov [bx+0x184d],es
000013F4  1F                pop ds
000013F5  A01007            mov al,[0x710]
000013F8  3115              xor [di],dx
000013FA  289D0344          sub [di+0x4403],bl
000013FE  248E              and al,0x8e
00001400  866FEF            xchg ch,[bx-0x11]
00001403  FFF5              push bp
00001405  A11D2E            mov ax,[0x2e1d]
00001408  BE783C            mov si,0x3c78
0000140B  41                inc cx
0000140C  088D0E81          or [di-0x7ef2],cl
00001410  5F                pop di
00001411  FF                db 0xff
00001412  FF                db 0xff
00001413  F8                clc
00001414  A4                movsb
00001415  5E                pop si
00001416  C3                ret
00001417  C47343            les si,[bp+di+0x43]
0000141A  0C0E              or al,0xe
0000141C  B82C33            mov ax,0x332c
0000141F  C7                db 0xc7
00001420  7222              jc 0x1444
00001422  C3                ret
00001423  8845EC            mov [di-0x14],al
00001426  E942FF            jmp 0x136b
00001429  FF                db 0xff
0000142A  FF8B45EC          dec word [bp+di-0x13bb]
0000142E  5C                pop sp
0000142F  0000              add [bx+si],al
00001431  E82FFE            call 0x1263
00001434  FF                db 0xff
00001435  FF                db 0xff
00001436  F8                clc
00001437  39A0008B          cmp [bx+si-0x7500],sp
0000143B  45                inc bp
0000143C  EC                in al,dx
0000143D  5C                pop sp
0000143E  C000E8            rol byte [bx+si],byte 0xe8
00001441  1CFE              sbb al,0xfe
00001443  FF                db 0xff
00001444  FF7238            push word [bp+si+0x38]
00001447  8B4245            mov ax,[bp+si+0x45]
0000144A  F0000E8DFE        lock add [0xfe8d],cl
0000144F  FF                db 0xff
00001450  FF725F            push word [bp+si+0x5f]
00001453  807DEC7C          cmp byte [di-0x14],0x7c
00001457  645E              fs pop si
00001459  C9                leave
0000145A  7248              jc 0x14a4
0000145C  045E              add al,0x5e
0000145E  C2B910            ret 0x10b9
00001461  008B55E8          add [bp+di-0x17ab],cl
00001465  F7DA              neg dx
00001467  8A417E            mov al,[bx+di+0x7e]
0000146A  8A9FEFFF          mov bl,[bx-0x11]
0000146E  FE                db 0xfe
0000146F  2F                das
00001470  65858E9E8F        test [gs:bp-0x7062],cx
00001475  EF                out dx,ax
00001476  FF                db 0xff
00001477  F8                clc
00001478  B45E              mov ah,0x5e
0000147A  C5                db 0xc5
0000147B  D800              fadd dword [bx+si]
0000147D  0E                push cs
0000147E  8D5FDF            lea bx,[bx-0x21]
00001481  FF                db 0xff
00001482  F8                clc
00001483  B55E              mov ch,0x5e
00001485  47                inc di
00001486  31E8              xor ax,bp
00001488  B45E              mov ah,0x5e
0000148A  C5                db 0xc5
0000148B  E400              in al,0x0
0000148D  0E                push cs
0000148E  8C3F              mov [bx],segr7
00001490  DF                db 0xdf
00001491  FF                db 0xff
00001492  F8                clc
00001493  B55E              mov ch,0x5e
00001495  07                pop es
00001496  368B55E0          mov dx,[ss:di-0x20]
0000149A  8755DC            xchg dx,[di-0x24]
0000149D  FF75E4            push word [di-0x1c]
000014A0  8F45E0            pop word [di-0x20]
000014A3  8755E8            xchg dx,[di-0x18]
000014A6  8955E4            mov [di-0x1c],dx
000014A9  B83450            mov ax,0x5034
000014AC  0E                push cs
000014AD  81AFEFFFF807      sub word [bx-0x11],0x7f8
000014B3  DEC7              faddp st7
000014B5  C645EC87          mov byte [di-0x14],0x87
000014B9  2480              and al,0x80
000014BB  45                inc bp
000014BC  EC                in al,dx
000014BD  3E9AE0008B45      ds call 0x458b:0xe0
000014C3  E88745            call 0x5a4d
000014C6  E487              in al,0x87
000014C8  45                inc bp
000014C9  E089              loopne 0x1454
000014CB  45                inc bp
000014CC  DC807DEC          fadd qword [bx+si-0x1383]
000014D0  7C64              jl 0x1536
000014D2  5E                pop si
000014D3  C7                db 0xc7
000014D4  7248              jc 0x151e
000014D6  045E              add al,0x5e
000014D8  C3                ret
000014D9  B83230            mov ax,0x3032
000014DC  0E                push cs
000014DD  8E3F              mov segr7,[bx]
000014DF  DF                db 0xdf
000014E0  FFF5              push bp
000014E2  2B830003          sub ax,[bp+di+0x300]
000014E6  9C                pushf
000014E7  27                daa
000014E8  6289C2B1          bound cx,[bx+di-0x4e3e]
000014EC  6D                insw
000014ED  3E28D8            ds sub al,bl
000014F0  2B01              sub ax,[bx+di]
000014F2  00E8              add al,ch
000014F4  9C                pushf
000014F5  FD                std
000014F6  FF                db 0xff
000014F7  FF8955E8          dec word [bx+di-0x17ab]
000014FB  83FA47            cmp dx,byte +0x47
000014FE  26389D1D1E        cmp [es:di+0x1e1d],bl
00001503  94                xchg ax,sp
00001504  9F                lahf
00001505  B6C2              mov dh,0xc2
00001507  241C              and al,0x1c
00001509  2D3E08            sub ax,0x83e
0000150C  94                xchg ax,sp
0000150D  5E                pop si
0000150E  883F              mov [bx],bh
00001510  AE                scasb
00001511  73C8              jnc 0x14db
00001513  B45E              mov ah,0x5e
00001515  85AF2002          test [bx+0x220],bp
00001519  9D                popf
0000151A  0E                push cs
0000151B  B398              mov bl,0x98
0000151D  0E                push cs
0000151E  94                xchg ax,sp
0000151F  31D2              xor dx,dx
00001521  D16DF4            shr word [di-0xc],1
00001524  D1E2              shl dx,1
00001526  8B45F4            mov ax,[di-0xc]
00001529  3945F0            cmp [di-0x10],ax
0000152C  7262              jc 0x1590
0000152E  94                xchg ax,sp
0000152F  5F                pop di
00001530  080C              or [si],cl
00001532  A13D00            mov ax,[0x3d]
00001535  0173CC            add [bp+di-0x34],si
00001538  16                push ss
00001539  5F                pop di
0000153A  48                dec ax
0000153B  C165F08A          shl word [di-0x10],byte 0x8a
0000153F  C8845F0E          enter 0x5f84,0xe
00001543  2D8B14            sub ax,0x148b
00001546  D3E2              shl dx,cl
00001548  155E8B            adc ax,0x8b5e
0000154B  82                db 0x82
0000154C  2300              and ax,[bx+si]
0000154E  E834FD            call 0x1285
00001551  FF                db 0xff
00001552  FF14              call [si]
00001554  DE8FF45E          fimul word [bx+0x5ef4]
00001558  85A83C22          test [bx+si+0x223c],bp
0000155C  89D1              mov cx,dx
0000155E  E9DFFE            jmp 0x1440
00001561  FF                db 0xff
00001562  FF8DB426          dec word [di+0x26b4]
00001566  0000              add [bx+si],al
00001568  8D7600            lea si,[bp+0x0]
0000156B  44                inc sp
0000156C  A383DF            mov [0xdf83],ax
0000156F  CB                retf
00001570  34DD              xor al,0xdd
00001572  CF                iret
00001573  B8D63F            mov ax,0x3fd6
00001576  CDFE              int 0xfe
00001578  54                push sp
00001579  1C91              sbb al,0x91
0000157B  20D1              and cl,dl
0000157D  A96246            test ax,0x4662
00001580  8CD3              mov bx,ss
00001582  75F4              jnz 0x1578
00001584  5F                pop di
00001585  C9                leave
00001586  EBD9              jmp short 0x1561
00001588  6E                outsb
00001589  56                push si
0000158A  BCA258            mov sp,0x58a2
0000158D  D127              shl word [bx],1
0000158F  54                push sp
00001590  D2                db 0xd2
00001591  3112              xor [bp+si],dx
00001593  D3                db 0xd3
00001594  B619              mov dh,0x19
00001596  D96EDD            fldcw [bp-0x23]
00001599  4E                dec si
0000159A  BFB7CA            mov di,0xcab7
0000159D  2EAF              cs scasw
0000159F  3ECF              ds iret
000015A1  39A5FB4D          cmp [di+0x4dfb],sp
000015A5  42                inc dx
000015A6  51                push cx
000015A7  C9                leave
000015A8  A28FBD            mov [0xbd8f],al
000015AB  58                pop ax
000015AC  A5                movsw
000015AD  6D                insw
000015AE  F042              lock inc dx
000015B0  E2CB              loop 0x157d
000015B2  23801FFD          and ax,[bx+si-0x2e1]
000015B6  848C13BE          test [si-0x41ed],cl
000015BA  CC                int3
000015BB  6324              arpl [si],sp
000015BD  FA                cli
000015BE  1E                push ds
000015BF  5B                pop bx
000015C0  8929              mov [bx+di],bp
000015C2  66                o32
000015C3  82                db 0x82
000015C4  886326            mov [bp+di+0x26],ah
000015C7  6A2E              push byte +0x2e
000015C9  27                daa
000015CA  FC                cld
000015CB  7DD6              jnl 0x15a3
000015CD  C489286B          les cx,[bx+di+0x6b28]
000015D1  F288D8            repne mov al,bl
000015D4  AA                stosb
000015D5  B647              mov dh,0x47
000015D7  13A5AC71          adc sp,[di+0x71ac]
000015DB  1E                push ds
000015DC  386897            cmp [bx+si-0x69],ch
000015DF  5C                pop sp
000015E0  FC                cld
000015E1  92                xchg ax,dx
000015E2  296234            sub [bp+si+0x34],sp
000015E5  75B8              jnz 0x159f
000015E7  3F                aas
000015E8  84A194E5          test [bx+di-0x1a6c],ah
000015EC  E6CF              out 0xcf,al
000015EE  1E                push ds
000015EF  0949C1            or [bx+di-0x3f],cx
000015F2  FD                std
000015F3  843603F6          test [0xf603],dh
000015F7  E13F              loope 0x1638
000015F9  A3CCEB            mov [0xebcc],ax
000015FC  29A08EAA          sub [bx+si-0x5572],sp
00001600  F3C09CC6545D      rep rcr byte [si+0x54c6],byte 0x5d
00001606  C1634F76          shl word [bp+di+0x4f],byte 0x76
0000160A  4D                dec bp
0000160B  E342              jcxz 0x164f
0000160D  3A6D5C            cmp ch,[di+0x5c]
00001610  27                daa
00001611  95                xchg ax,bp
00001612  5D                pop bp
00001613  101A              adc [bp+si],bl
00001615  8A6DC5            mov ch,[di-0x3b]
00001618  696C8974A5        imul bp,[si-0x77],word 0xa574
0000161D  2373EA            and si,[bp+di-0x16]
00001620  BF5EDD            mov di,0xdd5e
00001623  56                push si
00001624  4B                dec bx
00001625  BABAC0            mov dx,0xc0ba
00001628  878E886A          xchg cx,[bp+0x6a88]
0000162C  CA7136            retf 0x3671
0000162F  55                push bp
00001630  772C              ja 0x165e
00001632  BAC624            mov dx,0x24c6
00001635  AA                stosb
00001636  56                push si
00001637  D7                xlatb
00001638  A9E7A0            test ax,0xa0e7
0000163B  7B79              jpo 0x16b6
0000163D  5C                pop sp
0000163E  C0EBCD            shr bl,byte 0xcd
00001641  64E427            fs in al,0x27
00001644  19A87FE1          sbb [bx+si-0x1e81],bp
00001648  2548FE            and ax,0xfe48
0000164B  EB29              jmp short 0x1676
0000164D  2D92C7            sub ax,0xc792
00001650  D04422            rol byte [si+0x22],1
00001653  5F                pop di
00001654  2131              and [bx+di],si
00001656  7A6A              jpe 0x16c2
00001658  2B931D3C          sub dx,[bp+di+0x3c1d]
0000165C  A7                cmpsw
0000165D  5F                pop di
0000165E  4E                dec si
0000165F  48                dec ax
00001660  392E6850          cmp [0x5068],bp
00001664  E3FB              jcxz 0x1661
00001666  8AFB              mov bh,bl
00001668  CA781D            retf 0x1d78
0000166B  74C9              jz 0x1636
0000166D  4A                dec dx
0000166E  F5                cmc
0000166F  711A              jno 0x168b
00001671  F65D98            neg byte [di-0x68]
00001674  381B              cmp [bp+di],bl
00001676  E3CE              jcxz 0x1646
00001678  CD68              int 0x68
0000167A  C3                ret
0000167B  7817              js 0x1694
0000167D  A13A71            mov ax,[0x713a]
00001680  FE                db 0xfe
00001681  56                push si
00001682  52                push dx
00001683  DCFC              fdiv to st4
00001685  4E                dec si
00001686  A4                movsb
00001687  EF                out dx,ax
00001688  683164            push word 0x6431
0000168B  88E6              mov dh,ah
0000168D  CC                int3
0000168E  78D0              js 0x1660
00001690  CDAB              int 0xab
00001692  E921ED            jmp 0x3b6
00001695  42                inc dx
00001696  648380AE7B0F      add word [fs:bx+si+0x7bae],byte +0xf
0000169C  865BAD            xchg bl,[bp+di-0x53]
0000169F  861F              xchg bl,[bx]
000016A1  F6848716DF        test byte [si+0x1687],0xdf
000016A6  2C26              sub al,0x26
000016A8  DC23              fsub qword [bp+di]
000016AA  37                aaa
000016AB  7DFB              jnl 0x16a8
000016AD  F05C              lock pop sp
000016AF  94                xchg ax,sp
000016B0  331D              xor bx,[di]
000016B2  9F                lahf
000016B3  55                push bp
000016B4  29E4              sub sp,sp
000016B6  3617              ss pop ss
000016B8  4D                dec bp
000016B9  74FA              jz 0x16b5
000016BB  DFC7              ffreep st7
000016BD  65C2D722          gs ret 0x22d7
000016C1  B9B567            mov cx,0x67b5
000016C4  69122913          imul dx,[bp+si],word 0x1329
000016C8  751D              jnz 0x16e7
000016CA  56                push si
000016CB  FC                cld
000016CC  6F                outsw
000016CD  3CAE              cmp al,0xae
000016CF  F045              lock inc bp
000016D1  BA8872            mov dx,0x7288
000016D4  50                push ax
000016D5  45                inc bp
000016D6  CD6C              int 0x6c
000016D8  6D                insw
000016D9  3DAD50            cmp ax,0x50ad
000016DC  94                xchg ax,sp
000016DD  FD                std
000016DE  1E                push ds
000016DF  79F8              jns 0x16d9
000016E1  53                push bx
000016E2  8B5371            mov dx,[bp+di+0x71]
000016E5  CC                int3
000016E6  137AC8            adc di,[bp+si-0x38]
000016E9  86DB              xchg bl,bl
000016EB  267EBD            es jng 0x16ab
000016EE  837FCC12          cmp word [bx-0x34],byte +0x12
000016F2  84B34090          test [bp+di-0x6fc0],dh
000016F6  81A5F7232172      and word [di+0x23f7],0x7221
000016FC  FC                cld
000016FD  58                pop ax
000016FE  B2F9              mov dl,0xf9
00001700  37                aaa
00001701  B9E8E2            mov cx,0xe2e8
00001704  0389BB5C          add cx,[bx+di+0x5cbb]
00001708  F65882            neg byte [bx+si-0x7e]
0000170B  C3                ret
0000170C  6E                outsb
0000170D  17                pop ss
0000170E  55                push bp
0000170F  B9F584            mov cx,0x84f5
00001712  3F                aas
00001713  17                pop ss
00001714  320EDEC8          xor cl,[0xc8de]
00001718  9AAF34FB72        call 0x72fb:0x34af
0000171D  73DF              jnc 0x16fe
0000171F  DB8401C8          fild dword [si-0x37ff]
00001723  73F4              jnc 0x1719
00001725  3E2E90            cs nop
00001728  B824A1            mov ax,0xa124
0000172B  2CFA              sub al,0xfa
0000172D  5F                pop di
0000172E  40                inc ax
0000172F  11B56327          adc [di+0x2763],si
00001733  27                daa
00001734  53                push bx
00001735  1AEC              sbb ch,ah
00001737  3D7827            cmp ax,0x2778
0000173A  1F                pop ds
0000173B  6A7E              push byte +0x7e
0000173D  EB49              jmp short 0x1788
0000173F  95                xchg ax,bp
00001740  8A74AF            mov dh,[si-0x51]
00001743  82                db 0x82
00001744  91                xchg ax,cx
00001745  BD274C            mov bp,0x4c27
00001748  D88F7CB3          fmul dword [bx-0x4c84]
0000174C  B54B              mov ch,0x4b
0000174E  BFC6D5            mov di,0xd5c6
00001751  11BBDA3E          adc [bp+di+0x3eda],di
00001755  2449              and al,0x49
00001757  FF                db 0xff
00001758  DD4822            fisttp qword [bx+si+0x22]
0000175B  51                push cx
0000175C  5E                pop si
0000175D  01E8              add ax,bp
0000175F  717D              jno 0x17de
00001761  6B1EBD592A        imul bx,[0x59bd],byte +0x2a
00001766  0C63              or al,0x63
00001768  3F                aas
00001769  21FA              and dx,di
0000176B  8513              test [bp+di],dx
0000176D  93                xchg ax,bx
0000176E  95                xchg ax,bp
0000176F  F2BD97D5          repne mov bp,0xd597
00001773  42                inc dx
00001774  C27426            ret 0x2674
00001777  A14CCB            mov ax,[0xcb4c]
0000177A  8F                db 0x8f
0000177B  39AAF83A          cmp [bp+si+0x3af8],bp
0000177F  06                push es
00001780  F1                int1
00001781  6BC4C4            imul ax,sp,byte -0x3c
00001784  C1                db 0xc1
00001785  3142EC            xor [bp+si-0x14],ax
00001788  8B91C87D          mov dx,[bx+di+0x7dc8]
0000178C  6C                insb
0000178D  C6                db 0xc6
0000178E  0A8BF6EF          or cl,[bp+di-0x100a]
00001792  BBBDF0            mov bx,0xf0bd
00001795  115E97            adc [bp-0x69],bx
00001798  321A              xor bl,[bp+si]
0000179A  42                inc dx
0000179B  40                inc ax
0000179C  52                push dx
0000179D  31D3              xor bx,dx
0000179F  D9E1              fabs
000017A1  FC                cld
000017A2  F9                stc
000017A3  9A7EB9B7B2        call 0xb2b7:0xb97e
000017A8  18AA8CA8          sbb [bp+si-0x5774],ch
000017AC  CC                int3
000017AD  D493              aam 0x93
000017AF  A5                movsw
000017B0  A6                cmpsb
000017B1  D1FD              sar bp,1
000017B3  6434D0            fs xor al,0xd0
000017B6  98                cbw
000017B7  72EB              jc 0x17a4
000017B9  D1                db 0xd1
000017BA  30DC              xor ah,bl
000017BC  EC                in al,dx
000017BD  E229              loop 0x17e8
000017BF  675E              a32 pop si
000017C1  3221              xor ah,[bx+di]
000017C3  F24B              repne dec bx
000017C5  D04DB6            ror byte [di-0x4a],1
000017C8  96                xchg ax,si
000017C9  9A17D32A34        call 0x342a:0xd317
000017CE  6D                insw
000017CF  1D6AB2            sbb ax,0xb26a
000017D2  F6D5              not ch
000017D4  42                inc dx
000017D5  8EF2              mov segr6,dx
000017D7  7B0B              jpo 0x17e4
000017D9  2453              and al,0x53
000017DB  1ADB              sbb bl,bl
000017DD  C7                db 0xc7
000017DE  97                xchg ax,di
000017DF  0E                push cs
000017E0  99                cwd
000017E1  B1E3              mov cl,0xe3
000017E3  EF                out dx,ax
000017E4  78C2              js 0x17a8
000017E6  9F                lahf
000017E7  C1AED46E18        shr word [bp+0x6ed4],byte 0x18
000017EC  1D6C48            sbb ax,0x486c
000017EF  F376C3            rep jna 0x17b5
000017F2  E0E7              loopne 0x17db
000017F4  5B                pop bx
000017F5  E9A518            jmp 0x309d
000017F8  F0CD13            lock int 0x13
000017FB  C6                db 0xc6
000017FC  9B37              wait aaa
000017FE  E16B              loope 0x186b
00001800  7A2E              jpe 0x1830
00001802  27                daa
00001803  A1AF28            mov ax,[0x28af]
00001806  7327              jnc 0x182f
00001808  EF                out dx,ax
00001809  69E972F1          imul bp,cx,word 0xf172
0000180D  1F                pop ds
0000180E  8C95D1C5          mov [di-0x3a2f],ss
00001812  99                cwd
00001813  79F6              jns 0x180b
00001815  4E                dec si
00001816  4C                dec sp
00001817  A5                movsw
00001818  E2EA              loop 0x1804
0000181A  EE                out dx,al
0000181B  9E                sahf
0000181C  B25D              mov dl,0x5d
0000181E  44                inc sp
0000181F  CB                retf
00001820  6D                insw
00001821  4C                dec sp
00001822  31A2AF04          xor [bp+si+0x4af],sp
00001826  3F                aas
00001827  303C              xor [si],bh
00001829  A4                movsb
0000182A  CC                int3
0000182B  16                push ss
0000182C  757D              jnz 0x18ab
0000182E  AF                scasw
0000182F  43                inc bx
00001830  D1                db 0xd1
00001831  F4                hlt
00001832  48                dec ax
00001833  B22B              mov dl,0x2b
00001835  39BDB574          cmp [di+0x74b5],di
00001839  68784E            push word 0x4e78
0000183C  3F                aas
0000183D  52                push dx
0000183E  317716            xor [bx+0x16],si
00001841  EC                in al,dx
00001842  16                push ss
00001843  F0B9F194          lock mov cx,0x94f1
00001847  11B199E5          adc [bx+di-0x1a67],si
0000184B  B419              mov ah,0x19
0000184D  F26AF6            repne push byte -0xa
00001850  F8                clc
00001851  88A15AC1          mov [bx+di-0x3ea6],ah
00001855  BA278B            mov dx,0x8b27
00001858  D3591C            rcr word [bx+di+0x1c],cl
0000185B  E69C              out 0x9c,al
0000185D  A02702            mov al,[0x227]
00001860  0B3D              or di,[di]
00001862  1C2B              sbb al,0x2b
00001864  BB68FE            mov bx,0xfe68
00001867  A6                cmpsb
00001868  F681AC97A0        test byte [bx+di-0x6854],0xa0
0000186D  44                inc sp
0000186E  3D765D            cmp ax,0x5d76
00001871  DA30              fidiv dword [bx+si]
00001873  76C3              jna 0x1838
00001875  4D                dec bp
00001876  8F                db 0x8f
00001877  2DFBF4            sub ax,0xf4fb
0000187A  792E              jns 0x18aa
0000187C  3AE7              cmp ah,bh
0000187E  38D7              cmp bh,dl
00001880  17                pop ss
00001881  46                inc si
00001882  07                pop es
00001883  2A42A2            sub al,[bp+si-0x5e]
00001886  FB                sti
00001887  253FBE            and ax,0xbe3f
0000188A  1E                push ds
0000188B  93                xchg ax,bx
0000188C  2F                das
0000188D  3C3C              cmp al,0x3c
0000188F  4E                dec si
00001890  687B96            push word 0x967b
00001893  A4                movsb
00001894  CF                iret
00001895  6991C5B041B3      imul dx,[bx+di-0x4f3b],word 0xb341
0000189B  280F              sub [bx],cl
0000189D  B9ED2B            mov cx,0x2bed
000018A0  687647            push word 0x4776
000018A3  E2EA              loop 0x188f
000018A5  D4E5              aam 0xe5
000018A7  103ED1EA          adc [0xead1],bh
000018AB  DF9D41AD          fistp word [di-0x52bf]
000018AF  850A              test [bp+si],cx
000018B1  C4BCDFE9          les di,[si-0x1621]
000018B5  06                push es
000018B6  58                pop ax
000018B7  3433              xor al,0x33
000018B9  14BF              adc al,0xbf
000018BB  E70F              out 0xf,ax
000018BD  79D4              jns 0x1893
000018BF  6735C91F          xor ax,0x1fc9
000018C3  B346              mov bl,0x46
000018C5  C9                leave
000018C6  6304              arpl [si],ax
000018C8  B975A6            mov cx,0xa675
000018CB  397526            cmp [di+0x26],si
000018CE  54                push sp
000018CF  97                xchg ax,di
000018D0  43                inc bx
000018D1  1F                pop ds
000018D2  59                pop cx
000018D3  31B3B4AB          xor [bp+di-0x544c],si
000018D7  48                dec ax
000018D8  41                inc cx
000018D9  74FB              jz 0x18d6
000018DB  7AE3              jpe 0x18c0
000018DD  BA4641            mov dx,0x4146
000018E0  28EF              sub bh,ch
000018E2  48                dec ax
000018E3  850D              test [di],cx
000018E5  7B3F              jpo 0x1926
000018E7  EA4D431C4C        jmp 0x4c1c:0x434d
000018EC  12EA              adc ch,dl
000018EE  44                inc sp
000018EF  44                inc sp
000018F0  BEA2EE            mov si,0xeea2
000018F3  366C              ss insb
000018F5  F9                stc
000018F6  76EA              jna 0x18e2
000018F8  844E94            test [bp-0x6c],cl
000018FB  DF                db 0xdf
000018FC  DA                db 0xda
000018FD  EA47FFC787        jmp 0x87c7:0xff47
00001902  42                inc dx
00001903  A5                movsw
00001904  62463C            bound ax,[bp+0x3c]
00001907  60                pusha
00001908  5A                pop dx
00001909  D596              aad 0x96
0000190B  702E              jo 0x193b
0000190D  B11A              mov cl,0x1a
0000190F  79AC              jns 0x18bd
00001911  56                push si
00001912  A4                movsb
00001913  8BCC              mov cx,sp
00001915  359C97            xor ax,0x979c
00001918  F21D60FB          repne sbb ax,0xfb60
0000191C  88BAA62F          mov [bp+si+0x2fa6],bh
00001920  6896BB            push word 0xbb96
00001923  BCBA8A            mov sp,0x8aba
00001926  53                push bx
00001927  DC01              fadd qword [bx+di]
00001929  E95D41            jmp 0x5a89
0000192C  DC0A              fmul qword [bp+si]
0000192E  3F                aas
0000192F  E653              out 0x53,al
00001931  43                inc bx
00001932  6D                insw
00001933  359122            xor ax,0x2291
00001936  C224B9            ret 0xb924
00001939  6A72              push byte +0x72
0000193B  B257              mov dl,0x57
0000193D  B92A49            mov cx,0x492a
00001940  3A3A              cmp bh,[bp+si]
00001942  29FC              sub sp,di
00001944  CE                into
00001945  DEC1              faddp st1
00001947  4E                dec si
00001948  133F              adc di,[bx]
0000194A  283EC25E          sub [0x5ec2],bh
0000194E  286E59            sub [bp+0x59],ch
00001951  A93B4D            test ax,0x4d3b
00001954  05E861            add ax,0x61e8
00001957  52                push dx
00001958  EF                out dx,ax
00001959  2DD657            sub ax,0x57d6
0000195C  AB                stosw
0000195D  811C0298          sbb word [si],0x9802
00001961  64A6              fs cmpsb
00001963  94                xchg ax,sp
00001964  7366              jnc 0x19cc
00001966  74F9              jz 0x1961
00001968  B33F              mov bl,0x3f
0000196A  229349ED          and dl,[bp+di-0x12b7]
0000196E  DA8F2EBB          fimul dword [bx-0x44d2]
00001972  98                cbw
00001973  294BB8            sub [bp+di-0x48],cx
00001976  DC8EBF94          fmul qword [bp-0x6b41]
0000197A  D6                salc
0000197B  2484              and al,0x84
0000197D  F9                stc
0000197E  2EF5              cs cmc
00001980  1BDE              sbb bx,si
00001982  A2B98D            mov [0x8db9],al
00001985  2CBE              sub al,0xbe
00001987  C6                db 0xc6
00001988  98                cbw
00001989  DBF7              fcomi st7
0000198B  28B36C13          sub [bp+di+0x136c],dh
0000198F  52                push dx
00001990  BDC68F            mov bp,0x8fc6
00001993  DF4058            fild word [bx+si+0x58]
00001996  BBC01F            mov bx,0x1fc0
00001999  CC                int3
0000199A  6B62A3D1          imul sp,[bp+si-0x5d],byte -0x2f
0000199E  1D621F            sbb ax,0x1f62
000019A1  BE47DD            mov si,0xdd47
000019A4  6AFE              push byte -0x2
000019A6  8ADC              mov bl,ah
000019A8  B172              mov cl,0x72
000019AA  398FCD33          cmp [bx+0x33cd],cx
000019AE  F0AA              lock stosb
000019B0  AD                lodsw
000019B1  7756              ja 0x1a09
000019B3  99                cwd
000019B4  98                cbw
000019B5  2951E1            sub [bx+di-0x1f],dx
000019B8  667661            o32 jna 0x1a1c
000019BB  CE                into
000019BC  4E                dec si
000019BD  A92768            test ax,0x6827
000019C0  99                cwd
000019C1  A065CF            mov al,[0xcf65]
000019C4  AA                stosb
000019C5  6E                outsb
000019C6  CC                int3
000019C7  27                daa
000019C8  EB16              jmp short 0x19e0
000019CA  42                inc dx
000019CB  FA                cli
000019CC  D550              aad 0x50
000019CE  2B2C              sub bp,[si]
000019D0  9E                sahf
000019D1  2A27              sub ah,[bx]
000019D3  BA45C5            mov dx,0xc545
000019D6  76CD              jna 0x19a5
000019D8  3BB29B54          cmp si,[bp+si+0x549b]
000019DC  46                inc si
000019DD  1E                push ds
000019DE  75D4              jnz 0x19b4
000019E0  7F35              jg 0x1a17
000019E2  40                inc ax
000019E3  7867              js 0x1a4c
000019E5  16                push ss
000019E6  E66A              out 0x6a,al
000019E8  57                push di
000019E9  E41A              in al,0x1a
000019EB  758B              jnz 0x1978
000019ED  41                inc cx
000019EE  856F1B            test [bx+0x1b],bp
000019F1  53                push bx
000019F2  DCAB9AD6          fsubr qword [bp+di-0x2966]
000019F6  59                pop cx
000019F7  B46A              mov ah,0x6a
000019F9  52                push dx
000019FA  7FDE              jg 0x19da
000019FC  BD4504            mov bp,0x445
000019FF  C8D83D54          enter 0x3dd8,0x54
00001A03  5B                pop bx
00001A04  322F              xor ch,[bx]
00001A06  52                push dx
00001A07  B028              mov al,0x28
00001A09  72E1              jc 0x19ec
00001A0B  3919              cmp [bx+di],bx
00001A0D  4A                dec dx
00001A0E  E216              loop 0x1a26
00001A10  7737              ja 0x1a49
00001A12  FE                db 0xfe
00001A13  51                push cx
00001A14  A12F27            mov ax,[0x272f]
00001A17  79E9              jns 0x1a02
00001A19  8A8D3A34          mov cl,[di+0x343a]
00001A1D  F712              not word [bp+si]
00001A1F  235870            and bx,[bx+si+0x70]
00001A22  2645              es inc bp
00001A24  8E05              mov es,[di]
00001A26  754E              jnz 0x1a76
00001A28  F4                hlt
00001A29  F1                int1
00001A2A  33866489          xor ax,[bp-0x769c]
00001A2E  11B2C952          adc [bp+si+0x52c9],si
00001A32  B82FA9            mov ax,0xa92f
00001A35  88D9              mov cl,bl
00001A37  A914C6            test ax,0xc614
00001A3A  FE8EADEE          dec byte [bp-0x1153]
00001A3E  41                inc cx
00001A3F  777B              ja 0x1abc
00001A41  16                push ss
00001A42  CB                retf
00001A43  DAC6              fcmovb st6
00001A45  62                db 0x62
00001A46  FD                std
00001A47  D6                salc
00001A48  649A888F9716      fs call 0x1697:0x8f88
00001A4E  1E                push ds
00001A4F  9E                sahf
00001A50  C43C              les di,[si]
00001A52  E171              loope 0x1ac5
00001A54  D146E6            rol word [bp-0x1a],1
00001A57  8831              mov [bx+di],dh
00001A59  88542C            mov [si+0x2c],dl
00001A5C  37                aaa
00001A5D  CB                retf
00001A5E  FA                cli
00001A5F  B040              mov al,0x40
00001A61  56                push si
00001A62  6F                outsw
00001A63  17                pop ss
00001A64  7246              jc 0x1aac
00001A66  E2D0              loop 0x1a38
00001A68  13ADBE85          adc bp,[di-0x7a42]
00001A6C  4A                dec dx
00001A6D  79E1              jns 0x1a50
00001A6F  B3D7              mov bl,0xd7
00001A71  3E6D              ds insw
00001A73  4B                dec bx
00001A74  3A52E2            cmp dl,[bp+si-0x1e]
00001A77  FC                cld
00001A78  D3912B3E          rcl word [bx+di+0x3e2b],cl
00001A7C  FC                cld
00001A7D  D4B0              aam 0xb0
00001A7F  E8E052            call 0x6d62
00001A82  AA                stosb
00001A83  A914C0            test ax,0xc014
00001A86  EE                out dx,al
00001A87  17                pop ss
00001A88  A5                movsw
00001A89  E9501E            jmp 0x38dc
00001A8C  725C              jc 0x1aea
00001A8E  AB                stosw
00001A8F  CF                iret
00001A90  7CEA              jl 0x1a7c
00001A92  DFADB821          fild qword [di+0x21b8]
00001A96  BC7F8E            mov sp,0x8e7f
00001A99  83AD72E3A1        sub word [di-0x1c8e],byte -0x5f
00001A9E  8B7552            mov si,[di+0x52]
00001AA1  AA                stosb
00001AA2  0E                push cs
00001AA3  6868AF            push word 0xaf68
00001AA6  8EEC              mov gs,sp
00001AA8  C416055A          les dx,[0x5a05]
00001AAC  44                inc sp
00001AAD  E7A2              out 0xa2,ax
00001AAF  17                pop ss
00001AB0  9D                popf
00001AB1  A1D8E2            mov ax,[0xe2d8]
00001AB4  CA4B32            retf 0x324b
00001AB7  4F                dec di
00001AB8  7587              jnz 0x1a41
00001ABA  E823FB            call 0x15e0
00001ABD  6D                insw
00001ABE  C14632D7          rol word [bp+0x32],byte 0xd7
00001AC2  8EB655FD          mov segr6,[bp-0x2ab]
00001AC6  CE                into
00001AC7  A4                movsb
00001AC8  4C                dec sp
00001AC9  5E                pop si
00001ACA  63938D97          arpl [bp+di-0x6873],dx
00001ACE  97                xchg ax,di
00001ACF  95                xchg ax,bp
00001AD0  53                push bx
00001AD1  FE                db 0xfe
00001AD2  15CA5D            adc ax,0x5dca
00001AD5  91                xchg ax,cx
00001AD6  55                push bp
00001AD7  49                dec cx
00001AD8  6D                insw
00001AD9  2DF2AC            sub ax,0xacf2
00001ADC  E91E9A            jmp 0xb4fd
00001ADF  3BED              cmp bp,bp
00001AE1  8AA72D24          mov ah,[bx+0x242d]
00001AE5  D36A47            shr word [bp+si+0x47],cl
00001AE8  18AF2FB9          sbb [bx-0x46d1],ch
00001AEC  C8599A29          enter 0x9a59,0x29
00001AF0  E8AA99            call 0xb49d
00001AF3  4B                dec bx
00001AF4  D9                db 0xd9
00001AF5  0FD839            psubusb mm7,[bx+di]
00001AF8  349E              xor al,0x9e
00001AFA  AE                scasb
00001AFB  7867              js 0x1b64
00001AFD  C23813            ret 0x1338
00001B00  82                db 0x82
00001B01  733B              jnc 0x1b3e
00001B03  2F                das
00001B04  262A54F1          sub dl,[es:si-0xf]
00001B08  BE7A2D            mov si,0x2d7a
00001B0B  94                xchg ax,sp
00001B0C  C7                db 0xc7
00001B0D  D143EE            rol word [bp+di-0x12],1
00001B10  8A8CCE21          mov cl,[si+0x21ce]
00001B14  6502B42501        add dh,[gs:si+0x125]
00001B19  C9                leave
00001B1A  06                push es
00001B1B  8D0D              lea cx,[di]
00001B1D  C87DC5CC          enter 0xc57d,0xcc
00001B21  5F                pop di
00001B22  8AE2              mov ah,dl
00001B24  C9                leave
00001B25  F9                stc
00001B26  132C              adc bp,[si]
00001B28  55                push bp
00001B29  BBE489            mov bx,0x89e4
00001B2C  51                push cx
00001B2D  2F                das
00001B2E  695EE44215        imul bx,[bp-0x1c],word 0x1542
00001B33  2F                das
00001B34  E52B              in ax,0x2b
00001B36  0C7D              or al,0x7d
00001B38  34AC              xor al,0xac
00001B3A  11C2              adc dx,ax
00001B3C  81BE08EEEE4B      cmp word [bp-0x11f8],0x4bee
00001B42  44                inc sp
00001B43  3E663F            ds o32 aas
00001B46  F378EC            rep js 0x1b35
00001B49  66B22C            o32 mov dl,0x2c
00001B4C  AA                stosb
00001B4D  33E1              xor sp,cx
00001B4F  A5                movsw
00001B50  8D05              lea ax,[di]
00001B52  1E                push ds
00001B53  7728              ja 0x1b7d
00001B55  B87285            mov ax,0x8572
00001B58  CF                iret
00001B59  A2F70E            mov [0xef7],al
00001B5C  3AAB53AC          cmp ch,[bp+di-0x53ad]
00001B60  B689              mov dh,0x89
00001B62  4A                dec dx
00001B63  087989            or [bx+di-0x77],bh
00001B66  7DD2              jnl 0x1b3a
00001B68  88C6              mov dh,al
00001B6A  FC                cld
00001B6B  5B                pop bx
00001B6C  AE                scasb
00001B6D  BD5A9D            mov bp,0x9d5a
00001B70  5B                pop bx
00001B71  95                xchg ax,bp
00001B72  1224              adc ah,[si]
00001B74  109A9E59          adc [bp+si+0x599e],bl
00001B78  3332              xor si,[bp+si]
00001B7A  E998F0            jmp 0xc15
00001B7D  16                push ss
00001B7E  7F49              jg 0x1bc9
00001B80  1B20              sbb sp,[bx+si]
00001B82  80EDDD            sub ch,0xdd
00001B85  8B51AD            mov dx,[bx+di-0x53]
00001B88  93                xchg ax,bx
00001B89  B326              mov bl,0x26
00001B8B  7671              jna 0x1bfe
00001B8D  AC                lodsb
00001B8E  1F                pop ds
00001B8F  5E                pop si
00001B90  08F3              or bl,dh
00001B92  1E                push ds
00001B93  94                xchg ax,sp
00001B94  65B9B288          gs mov cx,0x88b2
00001B98  78B4              js 0x1b4e
00001B9A  E444              in al,0x44
00001B9C  1C76              sbb al,0x76
00001B9E  AE                scasb
00001B9F  7AFA              jpe 0x1b9b
00001BA1  06                push es
00001BA2  78B9              js 0x1b5d
00001BA4  17                pop ss
00001BA5  A7                cmpsw
00001BA6  FF                db 0xff
00001BA7  7C13              jl 0x1bbc
00001BA9  7CAD              jl 0x1b58
00001BAB  E8E599            call 0xb593
00001BAE  10FE              adc dh,bh
00001BB0  22CE              and cl,dh
00001BB2  894771            mov [bx+0x71],ax
00001BB5  51                push cx
00001BB6  4B                dec bx
00001BB7  DBEC              fucomi st4
00001BB9  7543              jnz 0x1bfe
00001BBB  9AABF79536        call 0x3695:0xf7ab
00001BC0  47                inc di
00001BC1  3F                aas
00001BC2  73E9              jnc 0x1bad
00001BC4  6727              a32 daa
00001BC6  1379B4            adc di,[bx+di-0x4c]
00001BC9  E64A              out 0x4a,al
00001BCB  D7                xlatb
00001BCC  D1FA              sar dx,1
00001BCE  D895FDD1          fcom dword [di-0x2e03]
00001BD2  82                db 0x82
00001BD3  6E                outsb
00001BD4  806A8136          sub byte [bp+si-0x7f],0x36
00001BD8  49                dec cx
00001BD9  B44D              mov ah,0x4d
00001BDB  5B                pop bx
00001BDC  53                push bx
00001BDD  92                xchg ax,dx
00001BDE  F1                int1
00001BDF  8CE3              mov bx,fs
00001BE1  E535              in ax,0x35
00001BE3  C7                db 0xc7
00001BE4  8C5622            mov [bp+0x22],ss
00001BE7  683ADB            push word 0xdb3a
00001BEA  7426              jz 0x1c12
00001BEC  3BEC              cmp bp,sp
00001BEE  26DAAFB24E        fisubr dword [es:bx+0x4eb2]
00001BF3  A18983            mov ax,[0x8389]
00001BF6  8932              mov [bp+si],si
00001BF8  A4                movsb
00001BF9  99                cwd
00001BFA  29681D            sub [bx+si+0x1d],bp
00001BFD  CA5CA9            retf 0xa95c
00001C00  17                pop ss
00001C01  1527C7            adc ax,0xc727
00001C04  F9                stc
00001C05  726A              jc 0x1c71
00001C07  F771E2            div word [bx+di-0x1e]
00001C0A  D6                salc
00001C0B  2F                das
00001C0C  2BB34D7F          sub si,[bp+di+0x7f4d]
00001C10  91                xchg ax,cx
00001C11  C8A7EF6E          enter 0xefa7,0x6e
00001C15  4A                dec dx
00001C16  E288              loop 0x1ba0
00001C18  8C1B              mov [bp+di],ds
00001C1A  73B9              jnc 0x1bd5
00001C1C  231ED841          and bx,[0x41d8]
00001C20  D15521            rcl word [di+0x21],1
00001C23  7AF9              jpe 0x1c1e
00001C25  83356B            xor word [di],byte +0x6b
00001C28  FB                sti
00001C29  1F                pop ds
00001C2A  8604              xchg al,[si]
00001C2C  1B38              sbb di,[bx+si]
00001C2E  A4                movsb
00001C2F  0FF911            psubw mm2,[bx+di]
00001C32  41                inc cx
00001C33  6A93              push byte -0x6d
00001C35  3F                aas
00001C36  06                push es
00001C37  07                pop es
00001C38  FB                sti
00001C39  EE                out dx,al
00001C3A  F8                clc
00001C3B  D5D5              aad 0xd5
00001C3D  6E                outsb
00001C3E  F1                int1
00001C3F  C57CCA            lds di,[si-0x36]
00001C42  229AE1B6          and bl,[bp+si-0x491f]
00001C46  91                xchg ax,cx
00001C47  90                nop
00001C48  A071DA            mov al,[0xda71]
00001C4B  BC90A5            mov sp,0xa590
00001C4E  90                nop
00001C4F  AE                scasb
00001C50  5D                pop bp
00001C51  D6                salc
00001C52  DF                db 0xdf
00001C53  D5CE              aad 0xce
00001C55  7717              ja 0x1c6e
00001C57  86899AB2          xchg cl,[bx+di-0x4d66]
00001C5B  12646D            adc ah,[si+0x6d]
00001C5E  CF                iret
00001C5F  AC                lodsb
00001C60  E9F876            jmp 0x935b
00001C63  8C7720            mov [bx+0x20],segr6
00001C66  C811DB4C          enter 0xdb11,0x4c
00001C6A  C56110            lds sp,[bx+di+0x10]
00001C6D  57                push di
00001C6E  D421              aam 0x21
00001C70  9C                pushf
00001C71  7F1F              jg 0x1c92
00001C73  59                pop cx
00001C74  F33E0A24          rep or ah,[ds:si]
00001C78  6651              push ecx
00001C7A  58                pop ax
00001C7B  A6                cmpsb
00001C7C  395E75            cmp [bp+0x75],bx
00001C7F  CC                int3
00001C80  F4                hlt
00001C81  8C25              mov [di],fs
00001C83  E431              in al,0x31
00001C85  54                push sp
00001C86  9C                pushf
00001C87  46                inc si
00001C88  34ED              xor al,0xed
00001C8A  6F                outsw
00001C8B  656F              gs outsw
00001C8D  E4D7              in al,0xd7
00001C8F  C28A6E            ret 0x6e8a
00001C92  BA3FFF            mov dx,0xff3f
00001C95  CDEA              int 0xea
00001C97  58                pop ax
00001C98  F4                hlt
00001C99  44                inc sp
00001C9A  A3EA17            mov [0x17ea],ax
00001C9D  CE                into
00001C9E  EA7224ADAB        jmp 0xabad:0x2472
00001CA3  D473              aam 0x73
00001CA5  79F2              jns 0x1c99
00001CA7  FB                sti
00001CA8  60                pusha
00001CA9  53                push bx
00001CAA  ED                in ax,dx
00001CAB  97                xchg ax,di
00001CAC  7357              jnc 0x1d05
00001CAE  BB4C18            mov bx,0x184c
00001CB1  DFA8EBE5          fild qword [bx+si-0x1a15]
00001CB5  DACC              fcmove st4
00001CB7  A867              test al,0x67
00001CB9  D1AFBA4A          shr word [bx+0x4aba],1
00001CBD  E8A5D1            call 0xee65
00001CC0  DDD1              fst st1
00001CC2  D0C9              ror cl,1
00001CC4  47                inc di
00001CC5  5C                pop sp
00001CC6  5E                pop si
00001CC7  881629EB          mov [0xeb29],dl
00001CCB  55                push bp
00001CCC  69153F3D          imul dx,[di],word 0x3d3f
00001CD0  16                push ss
00001CD1  A7                cmpsw
00001CD2  56                push si
00001CD3  CA8CA1            retf 0xa18c
00001CD6  47                inc di
00001CD7  9B21FC            wait and sp,di
00001CDA  4B                dec bx
00001CDB  99                cwd
00001CDC  6C                insb
00001CDD  797D              jns 0x1d5c
00001CDF  E9AECB            jmp 0xe890
00001CE2  8F                db 0x8f
00001CE3  AD                lodsw
00001CE4  1468              adc al,0x68
00001CE6  AB                stosw
00001CE7  BF9282            mov di,0x8292
00001CEA  E837DF            call 0xfc24
00001CED  5A                pop dx
00001CEE  CD08              int 0x8
00001CF0  A284C8            mov [0xc884],al
00001CF3  EBF7              jmp short 0x1cec
00001CF5  FF34              push word [si]
00001CF7  FD                std
00001CF8  B361              mov bl,0x61
00001CFA  DC9D0ED9          fcomp qword [di-0x26f2]
00001CFE  68DC7E            push word 0x7edc
00001D01  8020FD            and byte [bx+si],0xfd
00001D04  D5E2              aad 0xe2
00001D06  58                pop ax
00001D07  84CD              test ch,cl
00001D09  8365FCC2          and word [di-0x4],byte -0x3e
00001D0D  A0ADEE            mov al,[0xeead]
00001D10  AA                stosb
00001D11  40                inc ax
00001D12  9C                pushf
00001D13  17                pop ss
00001D14  C46C81            les bp,[si-0x7f]
00001D17  B3D6              mov bl,0xd6
00001D19  1914              sbb [si],dx
00001D1B  8565BE            test [di-0x42],sp
00001D1E  96                xchg ax,si
00001D1F  C52A              lds bp,[bp+si]
00001D21  EC                in al,dx
00001D22  17                pop ss
00001D23  B499              mov ah,0x99
00001D25  DBF1              fcomi st1
00001D27  FD                std
00001D28  6681E43FE53CDF    and esp,0xdf3ce53f
00001D2F  58                pop ax
00001D30  38DE              cmp dh,bl
00001D32  3F                aas
00001D33  248B              and al,0x8b
00001D35  B0C6              mov al,0xc6
00001D37  7F1E              jg 0x1d57
00001D39  32E3              xor ah,bl
00001D3B  56                push si
00001D3C  D7                xlatb
00001D3D  8518              test [bx+si],bx
00001D3F  CAC7C3            retf 0xc3c7
00001D42  C3                ret
00001D43  1AE9              sbb ch,cl
00001D45  F07E77            lock jng 0x1dbf
00001D48  51                push cx
00001D49  B7D7              mov bh,0xd7
00001D4B  B32D              mov bl,0x2d
00001D4D  CDF6              int 0xf6
00001D4F  57                push di
00001D50  AF                scasw
00001D51  6790              xchg ax,ax
00001D53  E362              jcxz 0x1db7
00001D55  8F                db 0x8f
00001D56  E02F              loopne 0x1d87
00001D58  B0C7              mov al,0xc7
00001D5A  E4A1              in al,0xa1
00001D5C  F8                clc
00001D5D  388517E5          cmp [di-0x1ae9],al
00001D61  D96E8A            fldcw [bp-0x76]
00001D64  BB4423            mov bx,0x2344
00001D67  07                pop es
00001D68  CAA9F6            retf 0xf6a9
00001D6B  3E17              ds pop ss
00001D6D  B115              mov cl,0x15
00001D6F  50                push ax
00001D70  AF                scasw
00001D71  A4                movsb
00001D72  7FF2              jg 0x1d66
00001D74  E2F3              loop 0x1d69
00001D76  7E76              jng 0x1dee
00001D78  205B57            and [bp+di+0x57],bl
00001D7B  E65B              out 0x5b,al
00001D7D  4A                dec dx
00001D7E  B774              mov bh,0x74
00001D80  94                xchg ax,sp
00001D81  D4B9              aam 0xb9
00001D83  7393              jnc 0x1d18
00001D85  50                push ax
00001D86  4A                dec dx
00001D87  6F                outsw
00001D88  8C6C4B            mov [si+0x4b],gs
00001D8B  27                daa
00001D8C  6BC36A            imul ax,bx,byte +0x6a
00001D8F  E4FB              in al,0xfb
00001D91  F4                hlt
00001D92  99                cwd
00001D93  86B71FD6          xchg dh,[bx-0x29e1]
00001D97  74E7              jz 0x1d80
00001D99  865110            xchg dl,[bx+di+0x10]
00001D9C  37                aaa
00001D9D  EF                out dx,ax
00001D9E  9C                pushf
00001D9F  6367D3            arpl [bx-0x2d],sp
00001DA2  E240              loop 0x1de4
00001DA4  B0AD              mov al,0xad
00001DA6  E2F2              loop 0x1d9a
00001DA8  134D75            adc cx,[di+0x75]
00001DAB  49                dec cx
00001DAC  626E87            bound bp,[bp-0x79]
00001DAF  44                inc sp
00001DB0  6E                outsb
00001DB1  AE                scasb
00001DB2  246F              and al,0x6f
00001DB4  90                nop
00001DB5  8A4F11            mov cl,[bx+0x11]
00001DB8  9C                pushf
00001DB9  25D9FF            and ax,0xffd9
00001DBC  2699              es cwd
00001DBE  38BCA93E          cmp [si+0x3ea9],bh
00001DC2  44                inc sp
00001DC3  E04C              loopne 0x1e11
00001DC5  772D              ja 0x1df4
00001DC7  D6                salc
00001DC8  8D7849            lea di,[bx+si+0x49]
00001DCB  E5F7              in ax,0xf7
00001DCD  F9                stc
00001DCE  8D                db 0x8d
00001DCF  CF                iret
00001DD0  F27844            bnd js 0x1e17
00001DD3  3F                aas
00001DD4  9A3B85B048        call 0x48b0:0x853b
00001DD9  818CBCB1D68E      or word [si-0x4e44],0x8ed6
00001DDF  FD                std
00001DE0  E4A0              in al,0xa0
00001DE2  CE                into
00001DE3  72AB              jc 0x1d90
00001DE5  26BBB62E          es mov bx,0x2eb6
00001DE9  4E                dec si
00001DEA  40                inc ax
00001DEB  12DF              adc bl,bh
00001DED  EBF9              jmp short 0x1de8
00001DEF  7188              jno 0x1d79
00001DF1  3F                aas
00001DF2  28C5              sub ch,al
00001DF4  B7F4              mov bh,0xf4
00001DF6  7337              jnc 0x1e2f
00001DF8  97                xchg ax,di
00001DF9  8F                db 0x8f
00001DFA  25B64C            and ax,0x4cb6
00001DFD  6E                outsb
00001DFE  F4                hlt
00001DFF  AE                scasb
00001E00  EE                out dx,al
00001E01  06                push es
00001E02  27                daa
00001E03  3493              xor al,0x93
00001E05  0D3289            or ax,0x8932
00001E08  AE                scasb
00001E09  7CBF              jl 0x1dca
00001E0B  53                push bx
00001E0C  32EE              xor ch,dh
00001E0E  A9E8E2            test ax,0xe2e8
00001E11  9D                popf
00001E12  1F                pop ds
00001E13  F8                clc
00001E14  EC                in al,dx
00001E15  EC                in al,dx
00001E16  8EE5              mov fs,bp
00001E18  BABC4B            mov dx,0x4bbc
00001E1B  D6                salc
00001E1C  327F44            xor bh,[bx+0x44]
00001E1F  A4                movsb
00001E20  EE                out dx,al
00001E21  FC                cld
00001E22  EC                in al,dx
00001E23  D406              aam 0x6
00001E25  BBB8B7            mov bx,0xb7b8
00001E28  626F08            bound bp,[bx+0x8]
00001E2B  42                inc dx
00001E2C  8A47F6            mov al,[bx-0xa]
00001E2F  A35E23            mov [0x235e],ax
00001E32  5C                pop sp
00001E33  F1                int1
00001E34  5F                pop di
00001E35  52                push dx
00001E36  0D1FE2            or ax,0xe21f
00001E39  42                inc dx
00001E3A  CAE391            retf 0x91e3
00001E3D  ED                in ax,dx
00001E3E  128BAC28          adc cl,[bp+di+0x28ac]
00001E42  761C              jna 0x1e60
00001E44  F9                stc
00001E45  95                xchg ax,bp
00001E46  28837A46          sub [bp+di+0x467a],al
00001E4A  52                push dx
00001E4B  8DB8549D          lea di,[bx+si-0x62ac]
00001E4F  85B862A5          test [bx+si-0x5a9e],di
00001E53  E13D              loope 0x1e92
00001E55  4D                dec bp
00001E56  E823A7            call 0xc57c
00001E59  E10C              loope 0x1e67
00001E5B  E5E7              in ax,0xe7
00001E5D  0A21              or ah,[bx+di]
00001E5F  FD                std
00001E60  B6CF              mov dh,0xcf
00001E62  BA573B            mov dx,0x3b57
00001E65  BAA42A            mov dx,0x2aa4
00001E68  1451              adc al,0x51
00001E6A  37                aaa
00001E6B  E311              jcxz 0x1e7e
00001E6D  319DD8EF          xor [di-0x1028],bx
00001E71  3307              xor ax,[bx]
00001E73  D548              aad 0x48
00001E75  CE                into
00001E76  4B                dec bx
00001E77  C23573            ret 0x7335
00001E7A  E4B2              in al,0xb2
00001E7C  6E                outsb
00001E7D  D997767C          fst dword [bx+0x7c76]
00001E81  ED                in ax,dx
00001E82  52                push dx
00001E83  2C37              sub al,0x37
00001E85  B5AC              mov ch,0xac
00001E87  68F28D            push word 0x8df2
00001E8A  19BCBFF4          sbb [si-0xb41],di
00001E8E  2B20              sub sp,[bx+si]
00001E90  EB18              jmp short 0x1eaa
00001E92  17                pop ss
00001E93  AB                stosw
00001E94  69B7719E11F8      imul si,[bx-0x618f],word 0xf811
00001E9A  7919              jns 0x1eb5
00001E9C  8A2D              mov ch,[di]
00001E9E  8F                db 0x8f
00001E9F  98                cbw
00001EA0  FA                cli
00001EA1  3123              xor [bp+di],sp
00001EA3  8F                db 0x8f
00001EA4  2F                das
00001EA5  16                push ss
00001EA6  87B621D6          xchg si,[bp-0x29df]
00001EAA  A803              test al,0x3
00001EAC  E395              jcxz 0x1e43
00001EAE  B4AF              mov ah,0xaf
00001EB0  82                db 0x82
00001EB1  AB                stosw
00001EB2  9BF1              wait int1
00001EB4  92                xchg ax,dx
00001EB5  97                xchg ax,di
00001EB6  7642              jna 0x1efa
00001EB8  5E                pop si
00001EB9  51                push cx
00001EBA  71F2              jno 0x1eae
00001EBC  49                dec cx
00001EBD  2659              es pop cx
00001EBF  4B                dec bx
00001EC0  8AE5              mov ah,ch
00001EC2  8065FD4F          and byte [di-0x3],0x4f
00001EC6  DCC8              fmul to st0
00001EC8  5A                pop dx
00001EC9  1ADE              sbb bl,dh
00001ECB  E4F5              in al,0xf5
00001ECD  46                inc si
00001ECE  82                db 0x82
00001ECF  3F                aas
00001ED0  BFA01C            mov di,0x1ca0
00001ED3  27                daa
00001ED4  07                pop es
00001ED5  52                push dx
00001ED6  E9ED81            jmp 0xa0c6
00001ED9  6A33              push byte +0x33
00001EDB  47                inc di
00001EDC  053243            add ax,0x4332
00001EDF  BD91BD            mov bp,0xbd91
00001EE2  43                inc bx
00001EE3  5A                pop dx
00001EE4  D386E2A3          rol word [bp-0x5c1e],cl
00001EE8  4B                dec bx
00001EE9  36E97E11          ss jmp 0x306b
00001EED  44                inc sp
00001EEE  3D83CD            cmp ax,0xcd83
00001EF1  FE                db 0xfe
00001EF2  97                xchg ax,di
00001EF3  6E                outsb
00001EF4  D256A7            rcl byte [bp-0x59],cl
00001EF7  D2AB628F          shr byte [bp+di-0x709e],cl
00001EFB  2875A4            sub [di-0x5c],dh
00001EFE  91                xchg ax,cx
00001EFF  5B                pop bx
00001F00  7D8E              jnl 0x1e90
00001F02  B8E0A7            mov ax,0xa7e0
00001F05  A5                movsw
00001F06  E076              loopne 0x1f7e
00001F08  2F                das
00001F09  46                inc si
00001F0A  21935FBC          and [bp+di-0x43a1],dx
00001F0E  B333              mov bl,0x33
00001F10  82                db 0x82
00001F11  881A              mov [bp+si],bl
00001F13  7427              jz 0x1f3c
00001F15  A2EC51            mov [0x51ec],al
00001F18  C3                ret
00001F19  DFB124B1          fbstp tword [bx+di-0x4edc]
00001F1D  0E                push cs
00001F1E  4E                dec si
00001F1F  98                cbw
00001F20  51                push cx
00001F21  C7                db 0xc7
00001F22  15F641            adc ax,0x41f6
00001F25  06                push es
00001F26  14D6              adc al,0xd6
00001F28  47                inc di
00001F29  9F                lahf
00001F2A  6609959D5D        or [di+0x5d9d],edx
00001F2F  E62F              out 0x2f,al
00001F31  94                xchg ax,sp
00001F32  347E              xor al,0x7e
00001F34  5A                pop dx
00001F35  35C932            xor ax,0x32c9
00001F38  56                push si
00001F39  76E8              jna 0x1f23
00001F3B  0923              or [bp+di],sp
00001F3D  6E                outsb
00001F3E  31A71F81          xor [bx-0x7ee1],sp
00001F42  6C                insb
00001F43  6C                insb
00001F44  A8C2              test al,0xc2
00001F46  14A8              adc al,0xa8
00001F48  D2DE              rcr dh,cl
00001F4A  73B7              jnc 0x1f03
00001F4C  53                push bx
00001F4D  5B                pop bx
00001F4E  A5                movsw
00001F4F  95                xchg ax,bp
00001F50  6C                insb
00001F51  F256              repne push si
00001F53  A9B84A            test ax,0x4ab8
00001F56  51                push cx
00001F57  BE017A            mov si,0x7a01
00001F5A  C14ACFB0          ror word [bp+si-0x31],byte 0xb0
00001F5E  41                inc cx
00001F5F  8DA23110          lea sp,[bp+si+0x1031]
00001F63  F4                hlt
00001F64  C6                db 0xc6
00001F65  D7                xlatb
00001F66  84C7              test bh,al
00001F68  4B                dec bx
00001F69  E3FD              jcxz 0x1f68
00001F6B  7F17              jg 0x1f84
00001F6D  7B74              jpo 0x1fe3
00001F6F  1F                pop ds
00001F70  38FD              cmp ch,bh
00001F72  9AC0C2663B        call 0x3b66:0xc2c0
00001F77  BDB8C2            mov bp,0xc2b8
00001F7A  386E9F            cmp [bp-0x61],ch
00001F7D  CB                retf
00001F7E  083C              or [si],bh
00001F80  37                aaa
00001F81  5C                pop sp
00001F82  F1                int1
00001F83  51                push cx
00001F84  878A7FDC          xchg cx,[bp+si-0x2381]
00001F88  45                inc bp
00001F89  E3AB              jcxz 0x1f36
00001F8B  5E                pop si
00001F8C  E8B3BA            call 0xda42
00001F8F  5F                pop di
00001F90  69BF67DDEC72      imul di,[bx-0x2299],word 0x72ec
00001F96  7484              jz 0x1f1c
00001F98  99                cwd
00001F99  9B1496            wait adc al,0x96
00001F9C  2D1584            sub ax,0x8415
00001F9F  89F7              mov di,si
00001FA1  4C                dec sp
00001FA2  0B4908            or cx,[bx+di+0x8]
00001FA5  F739              idiv word [bx+di]
00001FA7  EE                out dx,al
00001FA8  AD                lodsw
00001FA9  48                dec ax
00001FAA  30D7              xor bh,dl
00001FAC  9AAEE193D1        call 0xd193:0xe1ae
00001FB1  C7                db 0xc7
00001FB2  0D4DA1            or ax,0xa14d
00001FB5  9E                sahf
00001FB6  EA13CEA6C8        jmp 0xc8a6:0xce13
00001FBB  B6C1              mov dh,0xc1
00001FBD  0E                push cs
00001FBE  F24D              repne dec bp
00001FC0  043B              add al,0x3b
00001FC2  E152              loope 0x2016
00001FC4  9F                lahf
00001FC5  7C67              jl 0x202e
00001FC7  E25D              loop 0x2026
00001FC9  74B5              jz 0x1f80
00001FCB  5A                pop dx
00001FCC  0C37              or al,0x37
00001FCE  AB                stosw
00001FCF  D6                salc
00001FD0  57                push di
00001FD1  325E12            xor bl,[bp+0x12]
00001FD4  E789              out 0x89,ax
00001FD6  ED                in ax,dx
00001FD7  9E                sahf
00001FD8  92                xchg ax,dx
00001FD9  FE                db 0xfe
00001FDA  396EC2            cmp [bp-0x3e],bp
00001FDD  CDE7              int 0xe7
00001FDF  92                xchg ax,dx
00001FE0  43                inc bx
00001FE1  38D6              cmp dh,dl
00001FE3  82                db 0x82
00001FE4  D8F1              fdiv st1
00001FE6  1E                push ds
00001FE7  7C66              jl 0x204f
00001FE9  7E1F              jng 0x200a
00001FEB  94                xchg ax,sp
00001FEC  B9C9A1            mov cx,0xa1c9
00001FEF  7D00              jnl 0x1ff1
00001FF1  0000              add [bx+si],al
00001FF3  0000              add [bx+si],al
00001FF5  0000              add [bx+si],al
00001FF7  0000              add [bx+si],al
00001FF9  0000              add [bx+si],al
00001FFB  0000              add [bx+si],al
00001FFD  0000              add [bx+si],al
00001FFF  0000              add [bx+si],al
00002001  0000              add [bx+si],al
00002003  0000              add [bx+si],al
00002005  0000              add [bx+si],al
00002007  0000              add [bx+si],al
00002009  0000              add [bx+si],al
0000200B  0000              add [bx+si],al
0000200D  0000              add [bx+si],al
0000200F  0000              add [bx+si],al
00002011  0000              add [bx+si],al
00002013  0000              add [bx+si],al
00002015  0000              add [bx+si],al
00002017  0000              add [bx+si],al
00002019  0000              add [bx+si],al
0000201B  0000              add [bx+si],al
0000201D  0000              add [bx+si],al
0000201F  0000              add [bx+si],al
00002021  0000              add [bx+si],al
00002023  0000              add [bx+si],al
00002025  0000              add [bx+si],al
00002027  0000              add [bx+si],al
00002029  0000              add [bx+si],al
0000202B  0000              add [bx+si],al
0000202D  0000              add [bx+si],al
0000202F  0000              add [bx+si],al
00002031  0000              add [bx+si],al
00002033  0000              add [bx+si],al
00002035  0000              add [bx+si],al
00002037  0000              add [bx+si],al
00002039  0000              add [bx+si],al
0000203B  0000              add [bx+si],al
0000203D  0000              add [bx+si],al
0000203F  0000              add [bx+si],al
00002041  0000              add [bx+si],al
00002043  0000              add [bx+si],al
00002045  0000              add [bx+si],al
00002047  0000              add [bx+si],al
00002049  0000              add [bx+si],al
0000204B  0000              add [bx+si],al
0000204D  0000              add [bx+si],al
0000204F  0000              add [bx+si],al
00002051  0000              add [bx+si],al
00002053  0000              add [bx+si],al
00002055  0000              add [bx+si],al
00002057  0000              add [bx+si],al
00002059  0000              add [bx+si],al
0000205B  0000              add [bx+si],al
0000205D  0000              add [bx+si],al
0000205F  0000              add [bx+si],al
00002061  0000              add [bx+si],al
00002063  0000              add [bx+si],al
00002065  0000              add [bx+si],al
00002067  0000              add [bx+si],al
00002069  0000              add [bx+si],al
0000206B  0000              add [bx+si],al
0000206D  0000              add [bx+si],al
0000206F  0000              add [bx+si],al
00002071  0000              add [bx+si],al
00002073  0000              add [bx+si],al
00002075  0000              add [bx+si],al
00002077  0000              add [bx+si],al
00002079  0000              add [bx+si],al
0000207B  0000              add [bx+si],al
0000207D  0000              add [bx+si],al
0000207F  0000              add [bx+si],al
00002081  0000              add [bx+si],al
00002083  0000              add [bx+si],al
00002085  0000              add [bx+si],al
00002087  0000              add [bx+si],al
00002089  0000              add [bx+si],al
0000208B  0000              add [bx+si],al
0000208D  0000              add [bx+si],al
0000208F  0000              add [bx+si],al
00002091  0000              add [bx+si],al
00002093  0000              add [bx+si],al
00002095  0000              add [bx+si],al
00002097  0000              add [bx+si],al
00002099  0000              add [bx+si],al
0000209B  0000              add [bx+si],al
0000209D  0000              add [bx+si],al
0000209F  0000              add [bx+si],al
000020A1  0000              add [bx+si],al
000020A3  0000              add [bx+si],al
000020A5  0000              add [bx+si],al
000020A7  0000              add [bx+si],al
000020A9  0000              add [bx+si],al
000020AB  0000              add [bx+si],al
000020AD  0000              add [bx+si],al
000020AF  0000              add [bx+si],al
000020B1  0000              add [bx+si],al
000020B3  0000              add [bx+si],al
000020B5  0000              add [bx+si],al
000020B7  0000              add [bx+si],al
000020B9  0000              add [bx+si],al
000020BB  0000              add [bx+si],al
000020BD  0000              add [bx+si],al
000020BF  0000              add [bx+si],al
000020C1  0000              add [bx+si],al
000020C3  0000              add [bx+si],al
000020C5  0000              add [bx+si],al
000020C7  0000              add [bx+si],al
000020C9  0000              add [bx+si],al
000020CB  0000              add [bx+si],al
000020CD  0000              add [bx+si],al
000020CF  0000              add [bx+si],al
000020D1  0000              add [bx+si],al
000020D3  0000              add [bx+si],al
000020D5  0000              add [bx+si],al
000020D7  0000              add [bx+si],al
000020D9  0000              add [bx+si],al
000020DB  0000              add [bx+si],al
000020DD  0000              add [bx+si],al
000020DF  0000              add [bx+si],al
000020E1  0000              add [bx+si],al
000020E3  0000              add [bx+si],al
000020E5  0000              add [bx+si],al
000020E7  0000              add [bx+si],al
000020E9  0000              add [bx+si],al
000020EB  0000              add [bx+si],al
000020ED  0000              add [bx+si],al
000020EF  0000              add [bx+si],al
000020F1  0000              add [bx+si],al
000020F3  0000              add [bx+si],al
000020F5  0000              add [bx+si],al
000020F7  0000              add [bx+si],al
000020F9  0000              add [bx+si],al
000020FB  0000              add [bx+si],al
000020FD  0000              add [bx+si],al
000020FF  0000              add [bx+si],al
00002101  0000              add [bx+si],al
00002103  0000              add [bx+si],al
00002105  0000              add [bx+si],al
00002107  0000              add [bx+si],al
00002109  0000              add [bx+si],al
0000210B  0000              add [bx+si],al
0000210D  0000              add [bx+si],al
0000210F  0000              add [bx+si],al
00002111  0000              add [bx+si],al
00002113  0000              add [bx+si],al
00002115  0000              add [bx+si],al
00002117  0000              add [bx+si],al
00002119  0000              add [bx+si],al
0000211B  0000              add [bx+si],al
0000211D  0000              add [bx+si],al
0000211F  0000              add [bx+si],al
00002121  0000              add [bx+si],al
00002123  0000              add [bx+si],al
00002125  0000              add [bx+si],al
00002127  0000              add [bx+si],al
00002129  0000              add [bx+si],al
0000212B  0000              add [bx+si],al
0000212D  0000              add [bx+si],al
0000212F  0000              add [bx+si],al
00002131  0000              add [bx+si],al
00002133  0000              add [bx+si],al
00002135  0000              add [bx+si],al
00002137  0000              add [bx+si],al
00002139  0000              add [bx+si],al
0000213B  0000              add [bx+si],al
0000213D  0000              add [bx+si],al
0000213F  0000              add [bx+si],al
00002141  0000              add [bx+si],al
00002143  0000              add [bx+si],al
00002145  0000              add [bx+si],al
00002147  0000              add [bx+si],al
00002149  0000              add [bx+si],al
0000214B  0000              add [bx+si],al
0000214D  0000              add [bx+si],al
0000214F  0000              add [bx+si],al
00002151  0000              add [bx+si],al
00002153  0000              add [bx+si],al
00002155  0000              add [bx+si],al
00002157  0000              add [bx+si],al
00002159  0000              add [bx+si],al
0000215B  0000              add [bx+si],al
0000215D  0000              add [bx+si],al
0000215F  0000              add [bx+si],al
00002161  0000              add [bx+si],al
00002163  0000              add [bx+si],al
00002165  0000              add [bx+si],al
00002167  0000              add [bx+si],al
00002169  0000              add [bx+si],al
0000216B  0000              add [bx+si],al
0000216D  0000              add [bx+si],al
0000216F  0000              add [bx+si],al
00002171  0000              add [bx+si],al
00002173  0000              add [bx+si],al
00002175  0000              add [bx+si],al
00002177  0000              add [bx+si],al
00002179  0000              add [bx+si],al
0000217B  0000              add [bx+si],al
0000217D  0000              add [bx+si],al
0000217F  0000              add [bx+si],al
00002181  0000              add [bx+si],al
00002183  0000              add [bx+si],al
00002185  0000              add [bx+si],al
00002187  0000              add [bx+si],al
00002189  0000              add [bx+si],al
0000218B  0000              add [bx+si],al
0000218D  0000              add [bx+si],al
0000218F  0000              add [bx+si],al
00002191  0000              add [bx+si],al
00002193  0000              add [bx+si],al
00002195  0000              add [bx+si],al
00002197  0000              add [bx+si],al
00002199  0000              add [bx+si],al
0000219B  0000              add [bx+si],al
0000219D  0000              add [bx+si],al
0000219F  0000              add [bx+si],al
000021A1  0000              add [bx+si],al
000021A3  0000              add [bx+si],al
000021A5  0000              add [bx+si],al
000021A7  0000              add [bx+si],al
000021A9  0000              add [bx+si],al
000021AB  0000              add [bx+si],al
000021AD  0000              add [bx+si],al
000021AF  0000              add [bx+si],al
000021B1  0000              add [bx+si],al
000021B3  0000              add [bx+si],al
000021B5  0000              add [bx+si],al
000021B7  0000              add [bx+si],al
000021B9  0000              add [bx+si],al
000021BB  0000              add [bx+si],al
000021BD  0000              add [bx+si],al
000021BF  0000              add [bx+si],al
000021C1  0000              add [bx+si],al
000021C3  0000              add [bx+si],al
000021C5  0000              add [bx+si],al
000021C7  0000              add [bx+si],al
000021C9  0000              add [bx+si],al
000021CB  0000              add [bx+si],al
000021CD  0000              add [bx+si],al
000021CF  0000              add [bx+si],al
000021D1  0000              add [bx+si],al
000021D3  0000              add [bx+si],al
000021D5  0000              add [bx+si],al
000021D7  0000              add [bx+si],al
000021D9  0000              add [bx+si],al
000021DB  0000              add [bx+si],al
000021DD  0000              add [bx+si],al
000021DF  0000              add [bx+si],al
000021E1  0000              add [bx+si],al
000021E3  0000              add [bx+si],al
000021E5  0000              add [bx+si],al
000021E7  0000              add [bx+si],al
000021E9  0000              add [bx+si],al
000021EB  0000              add [bx+si],al
000021ED  0000              add [bx+si],al
000021EF  00                db 0x00
